LIBRARY Hera.dll

EXPORTS
??0?$QtSingleton@VAddCorrectDialog@@@@IAE@PAVAddCorrectDialog@@@Z @1 NONAME
??0?$QtSingleton@VBanBrowserDialog@@@@IAE@PAVBanBrowserDialog@@@Z @2 NONAME
??0?$QtSingleton@VBanScriptDepsDialog@@@@IAE@PAVBanScriptDepsDialog@@@Z @3 NONAME
??0?$QtSingleton@VCameraWindow@@@@IAE@PAVCameraWindow@@@Z @4 NONAME
??0?$QtSingleton@VHackManager@@@@IAE@PAVHackManager@@@Z @5 NONAME
??0?$QtSingleton@VHeraDocManager@@@@IAE@PAVHeraDocManager@@@Z @6 NONAME
??0?$QtSingleton@VHtmlElementEditor@@@@IAE@PAVHtmlElementEditor@@@Z @7 NONAME
??0?$QtSingleton@VKePages@@@@IAE@PAVKePages@@@Z @8 NONAME
??0?$QtSingleton@VNotifyWindow@@@@IAE@PAVNotifyWindow@@@Z @9 NONAME
??0?$QtSingleton@VScreenshotWindow@@@@IAE@PAVScreenshotWindow@@@Z @10 NONAME
??0?$has_slots@Vsingle_threaded@sigslot_liangshi@@@sigslot_liangshi@@QAE@ABV01@@Z @11 NONAME
??0?$has_slots@Vsingle_threaded@sigslot_liangshi@@@sigslot_liangshi@@QAE@XZ @12 NONAME
??0AddCorrectDialog@@QAE@XZ @13 NONAME
??0AnimationAction@@QAE@ABV0@@Z @14 NONAME
??0AnimationAction@@QAE@XZ @15 NONAME
??0AnimationThread@@QAE@PAVQObject@@@Z @16 NONAME
??0AudioVolumeIndicator@@QAE@VQString@@PAVQWidget@@@Z @17 NONAME
??0BanBaseWidget@@QAE@_NPAVQWidget@@@Z @18 NONAME
??0BanBrowserDialog@@QAE@XZ @19 NONAME
??0BanCategoryList@@QAE@PAVQWidget@@@Z @20 NONAME
??0BanContent@@QAE@ABV0@@Z @21 NONAME
??0BanContent@@QAE@XZ @22 NONAME
??0BanContentVersion5@@QAE@ABV0@@Z @23 NONAME
??0BanContentVersion5@@QAE@XZ @24 NONAME
??0BanDocument@@IAE@XZ @25 NONAME
??0BanDocument@@QAE@ABV0@@Z @26 NONAME
??0BanElement@@QAE@ABV0@@Z @27 NONAME
??0BanElement@@QAE@PAVBanBaseWidget@@@Z @28 NONAME
??0BanElement@@QAE@XZ @29 NONAME
??0BanElementHelper@@QAE@PAVBanElement@@PAVQWidget@@@Z @30 NONAME
??0BanElementScriptValue@@QAE@PAVQScriptEngine@@PAVBanScriptWidget@@VQString@@@Z @31 NONAME
??0BanElementWithLabel@@QAE@ABV0@@Z @32 NONAME
??0BanElementWithLabel@@QAE@PAVBanBaseWidget@@@Z @33 NONAME
??0BanElementWithLabel@@QAE@XZ @34 NONAME
??0BanFile@@QAE@ABV0@@Z @35 NONAME
??0BanFile@@QAE@PAVBanDocument@@@Z @36 NONAME
??0BanList@@QAE@PAVQWidget@@@Z @37 NONAME
??0BanScriptDeps@@QAE@ABV0@@Z @38 NONAME
??0BanScriptDeps@@QAE@XZ @39 NONAME
??0BanScriptDepsDialog@@QAE@XZ @40 NONAME
??0BanScriptEditor@@QAE@PAVQWidget@@@Z @41 NONAME
??0BanScriptRuntime@@QAE@PAVBanScriptWidget@@@Z @42 NONAME
??0BanScriptWidget@@QAE@_NPAVQWidget@@@Z @43 NONAME
??0BanStateElement@@QAE@ABV0@@Z @44 NONAME
??0BanStateElement@@QAE@PAVBanElement@@@Z @45 NONAME
??0BanStateElement@@QAE@XZ @46 NONAME
??0BanTitleWidget@@QAE@PAVQWidget@@@Z @47 NONAME
??0BottomMostAction@@QAE@ABV0@@Z @48 NONAME
??0BottomMostAction@@QAE@XZ @49 NONAME
??0CameraWindow@@QAE@XZ @50 NONAME
??0CheckableImageButton@@QAE@VQString@@PAVQWidget@@@Z @51 NONAME
??0ChineseMessageBox@@QAE@XZ @52 NONAME
??0ColorButton@@QAE@VQString@@PAVQWidget@@@Z @53 NONAME
??0CompressedImageBuffer@@QAE@AAV0@@Z @54 NONAME
??0CompressedImageBuffer@@QAE@XZ @55 NONAME
??0CompressedImageElement@@QAE@AAV0@@Z @56 NONAME
??0CompressedImageElement@@QAE@VQPoint@@AAVQPixmap@@@Z @57 NONAME
??0CompressedImageElement@@QAE@XZ @58 NONAME
??0DrawElement@@QAE@ABV0@@Z @59 NONAME
??0DrawElement@@QAE@XZ @60 NONAME
??0DrawingToolsTitleWidget@@QAE@PAVKeTime@@PAVQWidget@@@Z @61 NONAME
??0Element@@IAE@XZ @62 NONAME
??0Element@@QAE@ABV0@@Z @63 NONAME
??0ElementLabel@@QAE@PAVQWidget@@@Z @64 NONAME
??0ElementLabelBorder@@QAE@PAVQWidget@@_N@Z @65 NONAME
??0ElementResizableTitlebar@@QAE@PAVQWidget@@@Z @66 NONAME
??0EllipseElement@@QAE@ABV0@@Z @67 NONAME
??0EllipseElement@@QAE@XZ @68 NONAME
??0FileTitleWidget@@QAE@W4FileTitleType@@PAVQWidget@@@Z @69 NONAME
??0FourStateImageButton@@QAE@PAVQWidget@@@Z @70 NONAME
??0HackManager@@QAE@XZ @71 NONAME
??0HeraDocManager@@QAE@XZ @72 NONAME
??0HeraDocument@@IAE@XZ @73 NONAME
??0HeraDocument@@QAE@ABV0@@Z @74 NONAME
??0HeraMainWidget@@QAE@W4NewableDocType@@PAVQWidget@@@Z @75 NONAME
??0HeraSingletons@@QAE@XZ @76 NONAME
??0HideAction@@QAE@ABV0@@Z @77 NONAME
??0HideAction@@QAE@XZ @78 NONAME
??0HtmlElementEditor@@QAE@XZ @79 NONAME
??0HtmlElementPainter@@QAE@PAVQObject@@@Z @80 NONAME
??0HtmlElementViewer@@QAE@XZ @81 NONAME
??0HtmlTextElement@@QAE@ABV0@@Z @82 NONAME
??0HtmlTextElement@@QAE@VQPoint@@VQString@@H@Z @83 NONAME
??0HtmlTextElement@@QAE@XZ @84 NONAME
??0HtmlTextElementHelper@@QAE@PAVHtmlTextElement@@PAVQWidget@@@Z @85 NONAME
??0ImageBaseElement@@QAE@ABV0@@Z @86 NONAME
??0ImageBaseElement@@QAE@XZ @87 NONAME
??0ImageBuffer@@QAE@AAV0@@Z @88 NONAME
??0ImageBuffer@@QAE@XZ @89 NONAME
??0ImageElement@@QAE@AAV0@@Z @90 NONAME
??0ImageElement@@QAE@VQPoint@@AAVQPixmap@@@Z @91 NONAME
??0ImageElement@@QAE@XZ @92 NONAME
??0ImageElementHelper@@QAE@PAVImageBaseElement@@PAVQWidget@@@Z @93 NONAME
??0ImageElementScriptValue@@QAE@PAVQScriptEngine@@PAVBanScriptWidget@@VQString@@@Z @94 NONAME
??0ImageStateElement@@QAE@ABV0@@Z @95 NONAME
??0ImageStateElement@@QAE@PAVImageBaseElement@@@Z @96 NONAME
??0ImageStateElement@@QAE@XZ @97 NONAME
??0JSEdit@@QAE@PAVQWidget@@@Z @98 NONAME
??0KeFile@@QAE@ABV0@@Z @99 NONAME
??0KeFile@@QAE@PAVKeWidget@@@Z @100 NONAME
??0KePages@@QAE@PAVQWidget@@@Z @101 NONAME
??0KeTime@@QAE@PAVQObject@@@Z @102 NONAME
??0KeTitleWidget@@QAE@PAVKeTime@@PAVQWidget@@@Z @103 NONAME
??0KeWidget@@QAE@PAVKeTime@@PAVQWidget@@@Z @104 NONAME
??0LineColorAction@@QAE@ABV0@@Z @105 NONAME
??0LineColorAction@@QAE@XZ @106 NONAME
??0LineElement@@QAE@ABV0@@Z @107 NONAME
??0LineElement@@QAE@XZ @108 NONAME
??0LineStyleAction@@QAE@ABV0@@Z @109 NONAME
??0LineStyleAction@@QAE@XZ @110 NONAME
??0LineWidthAction@@QAE@ABV0@@Z @111 NONAME
??0LineWidthAction@@QAE@XZ @112 NONAME
??0LiveTitleWidget@@QAE@PAVQWidget@@@Z @113 NONAME
??0LiveWidget@@QAE@VQString@@PAVQWidget@@@Z @114 NONAME
??0LokiClient@@QAE@XZ @115 NONAME
??0MarkdownWidget@@QAE@ABV0@@Z @116 NONAME
??0MarkdownWidget@@QAE@XZ @117 NONAME
??0MediaElement@@QAE@ABV0@@Z @118 NONAME
??0MediaElement@@QAE@XZ @119 NONAME
??0NetworkShowAction@@QAE@ABV0@@Z @120 NONAME
??0NetworkShowAction@@QAE@XZ @121 NONAME
??0NetworkSwitchPageAction@@QAE@ABV0@@Z @122 NONAME
??0NetworkSwitchPageAction@@QAE@XZ @123 NONAME
??0NotifyWindow@@QAE@PAVQWidget@@@Z @124 NONAME
??0NumberButton@@QAE@VQString@@PAVQWidget@@@Z @125 NONAME
??0OneImageButton@@QAE@VQString@@0PAVQWidget@@@Z @126 NONAME
??0OrigialDrawElement@@QAE@ABV0@@Z @127 NONAME
??0OrigialDrawElement@@QAE@XZ @128 NONAME
??0PathElement@@IAE@XZ @129 NONAME
??0PathElement@@QAE@ABV0@@Z @130 NONAME
??0PathElementHelper@@QAE@PAVQWidget@@@Z @131 NONAME
??0PlayerPage@@QAE@HHPAVBanBaseWidget@@PAVQWidget@@@Z @132 NONAME
??0PlayerProgressBar@@QAE@PAVQWidget@@@Z @133 NONAME
??0PlayerTitleWidget@@QAE@W4NewableDocType@@PAVKeTime@@PAVQWidget@@@Z @134 NONAME
??0PlayerWidget@@QAE@PAVQWidget@@@Z @135 NONAME
??0RectElement@@QAE@ABV0@@Z @136 NONAME
??0RectElement@@QAE@XZ @137 NONAME
??0SPoint@@QAE@ABV0@@Z @138 NONAME
??0SPoint@@QAE@ABVQPoint@@@Z @139 NONAME
??0SPoint@@QAE@ABVQVector2D@@@Z @140 NONAME
??0SPoint@@QAE@HH@Z @141 NONAME
??0SPoint@@QAE@XZ @142 NONAME
??0ScCheckableButton@@QAE@VQString@@PAVQWidget@@@Z @143 NONAME
??0ScreenshotWindow@@QAE@XZ @144 NONAME
??0ScriptTitleWidget@@QAE@PAVQWidget@@@Z @145 NONAME
??0SelectColorMenu@@QAE@PAVQWidget@@@Z @146 NONAME
??0SelectNumberMenu@@QAE@PAVQWidget@@@Z @147 NONAME
??0ShowAction@@QAE@ABV0@@Z @148 NONAME
??0ShowAction@@QAE@XZ @149 NONAME
??0SizeAction@@QAE@ABV0@@Z @150 NONAME
??0SizeAction@@QAE@XZ @151 NONAME
??0SlidePresenter@@QAE@PAVQWidget@@@Z @152 NONAME
??0SwitchPageAction@@QAE@ABV0@@Z @153 NONAME
??0SwitchPageAction@@QAE@XZ @154 NONAME
??0SysTitleWidget@@QAE@_N0PAVQWidget@@@Z @155 NONAME
??0TestBanElement@@QAE@ABV0@@Z @156 NONAME
??0TestBanElement@@QAE@PAVTestBaseWidget@@@Z @157 NONAME
??0TestBanElement@@QAE@XZ @158 NONAME
??0TestBanElementWithLabel@@QAE@ABV0@@Z @159 NONAME
??0TestBanElementWithLabel@@QAE@PAVTestBaseWidget@@@Z @160 NONAME
??0TestBanElementWithLabel@@QAE@XZ @161 NONAME
??0TestBaseWidget@@QAE@_NPAVQWidget@@@Z @162 NONAME
??0TestTitleWidget@@QAE@PAVQWidget@@@Z @163 NONAME
??0TextChangedAction@@QAE@ABV0@@Z @164 NONAME
??0TextChangedAction@@QAE@XZ @165 NONAME
??0TextElement@@QAE@ABV0@@Z @166 NONAME
??0TextElement@@QAE@VQPoint@@VQString@@H@Z @167 NONAME
??0TextElement@@QAE@XZ @168 NONAME
??0TextElementHelper@@QAE@PAVTextElement@@PAVQWidget@@@Z @169 NONAME
??0TextElementScriptValue@@QAE@PAVQScriptEngine@@PAVBanScriptWidget@@VQString@@H@Z @170 NONAME
??0TitleButton@@QAE@PAVQWidget@@@Z @171 NONAME
??0TitleButton@@QAE@VQString@@PAVQWidget@@@Z @172 NONAME
??0TitleCheckBox@@QAE@PAVQWidget@@@Z @173 NONAME
??0TitleComboBox@@QAE@PAVQWidget@@@Z @174 NONAME
??0TitleWidget@@QAE@PAVKeTime@@W4NewableDocType@@PAVQWidget@@@Z @175 NONAME
??0TopMostAction@@QAE@ABV0@@Z @176 NONAME
??0TopMostAction@@QAE@XZ @177 NONAME
??0TwoStateImageButton@@QAE@VQString@@0PAVQWidget@@@Z @178 NONAME
??1?$QtSingleton@VAddCorrectDialog@@@@IAE@XZ @179 NONAME
??1?$QtSingleton@VBanBrowserDialog@@@@IAE@XZ @180 NONAME
??1?$QtSingleton@VBanScriptDepsDialog@@@@IAE@XZ @181 NONAME
??1?$QtSingleton@VCameraWindow@@@@IAE@XZ @182 NONAME
??1?$QtSingleton@VHackManager@@@@IAE@XZ @183 NONAME
??1?$QtSingleton@VHeraDocManager@@@@IAE@XZ @184 NONAME
??1?$QtSingleton@VHtmlElementEditor@@@@IAE@XZ @185 NONAME
??1?$QtSingleton@VKePages@@@@IAE@XZ @186 NONAME
??1?$QtSingleton@VNotifyWindow@@@@IAE@XZ @187 NONAME
??1?$QtSingleton@VScreenshotWindow@@@@IAE@XZ @188 NONAME
??1?$has_slots@Vsingle_threaded@sigslot_liangshi@@@sigslot_liangshi@@UAE@XZ @189 NONAME
??1AddCorrectDialog@@UAE@XZ @190 NONAME
??1AnimationAction@@UAE@XZ @191 NONAME
??1AnimationThread@@UAE@XZ @192 NONAME
??1AudioVolumeIndicator@@UAE@XZ @193 NONAME
??1BanBaseWidget@@UAE@XZ @194 NONAME
??1BanBrowserDialog@@UAE@XZ @195 NONAME
??1BanCategoryList@@UAE@XZ @196 NONAME
??1BanContent@@UAE@XZ @197 NONAME
??1BanContentVersion5@@UAE@XZ @198 NONAME
??1BanDocument@@MAE@XZ @199 NONAME
??1BanElement@@UAE@XZ @200 NONAME
??1BanElementHelper@@UAE@XZ @201 NONAME
??1BanElementScriptValue@@UAE@XZ @202 NONAME
??1BanElementWithLabel@@UAE@XZ @203 NONAME
??1BanFile@@UAE@XZ @204 NONAME
??1BanList@@UAE@XZ @205 NONAME
??1BanScriptDeps@@QAE@XZ @206 NONAME
??1BanScriptDepsDialog@@UAE@XZ @207 NONAME
??1BanScriptEditor@@UAE@XZ @208 NONAME
??1BanScriptRuntime@@UAE@XZ @209 NONAME
??1BanScriptWidget@@UAE@XZ @210 NONAME
??1BanStateElement@@UAE@XZ @211 NONAME
??1BanTitleWidget@@UAE@XZ @212 NONAME
??1BottomMostAction@@UAE@XZ @213 NONAME
??1CameraWindow@@UAE@XZ @214 NONAME
??1CheckableImageButton@@UAE@XZ @215 NONAME
??1ChineseMessageBox@@QAE@XZ @216 NONAME
??1ColorButton@@UAE@XZ @217 NONAME
??1CompressedImageBuffer@@QAE@XZ @218 NONAME
??1CompressedImageElement@@UAE@XZ @219 NONAME
??1DrawElement@@UAE@XZ @220 NONAME
??1DrawingToolsTitleWidget@@UAE@XZ @221 NONAME
??1Element@@UAE@XZ @222 NONAME
??1ElementLabel@@UAE@XZ @223 NONAME
??1ElementLabelBorder@@UAE@XZ @224 NONAME
??1ElementResizableTitlebar@@UAE@XZ @225 NONAME
??1EllipseElement@@UAE@XZ @226 NONAME
??1FileTitleWidget@@UAE@XZ @227 NONAME
??1FourStateImageButton@@UAE@XZ @228 NONAME
??1HackManager@@UAE@XZ @229 NONAME
??1HeraDocManager@@UAE@XZ @230 NONAME
??1HeraDocument@@MAE@XZ @231 NONAME
??1HeraMainWidget@@UAE@XZ @232 NONAME
??1HeraSingletons@@UAE@XZ @233 NONAME
??1HideAction@@UAE@XZ @234 NONAME
??1HtmlElementEditor@@UAE@XZ @235 NONAME
??1HtmlElementPainter@@UAE@XZ @236 NONAME
??1HtmlElementViewer@@UAE@XZ @237 NONAME
??1HtmlTextElement@@UAE@XZ @238 NONAME
??1HtmlTextElementHelper@@UAE@XZ @239 NONAME
??1ImageBaseElement@@UAE@XZ @240 NONAME
??1ImageBuffer@@QAE@XZ @241 NONAME
??1ImageElement@@UAE@XZ @242 NONAME
??1ImageElementHelper@@UAE@XZ @243 NONAME
??1ImageElementScriptValue@@UAE@XZ @244 NONAME
??1ImageStateElement@@UAE@XZ @245 NONAME
??1JSEdit@@UAE@XZ @246 NONAME
??1KeFile@@UAE@XZ @247 NONAME
??1KePages@@UAE@XZ @248 NONAME
??1KeTime@@UAE@XZ @249 NONAME
??1KeTitleWidget@@UAE@XZ @250 NONAME
??1KeWidget@@UAE@XZ @251 NONAME
??1LineColorAction@@UAE@XZ @252 NONAME
??1LineElement@@UAE@XZ @253 NONAME
??1LineStyleAction@@UAE@XZ @254 NONAME
??1LineWidthAction@@UAE@XZ @255 NONAME
??1LiveTitleWidget@@UAE@XZ @256 NONAME
??1LiveWidget@@UAE@XZ @257 NONAME
??1LokiClient@@UAE@XZ @258 NONAME
??1MarkdownWidget@@UAE@XZ @259 NONAME
??1MediaElement@@UAE@XZ @260 NONAME
??1NetworkShowAction@@UAE@XZ @261 NONAME
??1NetworkSwitchPageAction@@UAE@XZ @262 NONAME
??1NotifyWindow@@UAE@XZ @263 NONAME
??1NumberButton@@UAE@XZ @264 NONAME
??1OneImageButton@@UAE@XZ @265 NONAME
??1OrigialDrawElement@@UAE@XZ @266 NONAME
??1PathElement@@UAE@XZ @267 NONAME
??1PathElementHelper@@UAE@XZ @268 NONAME
??1PlayerPage@@UAE@XZ @269 NONAME
??1PlayerProgressBar@@UAE@XZ @270 NONAME
??1PlayerTitleWidget@@UAE@XZ @271 NONAME
??1PlayerWidget@@UAE@XZ @272 NONAME
??1RectElement@@UAE@XZ @273 NONAME
??1SPoint@@QAE@XZ @274 NONAME
??1ScCheckableButton@@UAE@XZ @275 NONAME
??1ScreenshotWindow@@UAE@XZ @276 NONAME
??1ScriptTitleWidget@@UAE@XZ @277 NONAME
??1SelectColorMenu@@UAE@XZ @278 NONAME
??1SelectNumberMenu@@UAE@XZ @279 NONAME
??1ShowAction@@UAE@XZ @280 NONAME
??1SizeAction@@UAE@XZ @281 NONAME
??1SlidePresenter@@UAE@XZ @282 NONAME
??1SwitchPageAction@@UAE@XZ @283 NONAME
??1SysTitleWidget@@UAE@XZ @284 NONAME
??1TestBanElement@@UAE@XZ @285 NONAME
??1TestBanElementWithLabel@@UAE@XZ @286 NONAME
??1TestBaseWidget@@UAE@XZ @287 NONAME
??1TestTitleWidget@@UAE@XZ @288 NONAME
??1TextChangedAction@@UAE@XZ @289 NONAME
??1TextElement@@UAE@XZ @290 NONAME
??1TextElementHelper@@UAE@XZ @291 NONAME
??1TextElementScriptValue@@UAE@XZ @292 NONAME
??1TitleButton@@UAE@XZ @293 NONAME
??1TitleCheckBox@@UAE@XZ @294 NONAME
??1TitleComboBox@@UAE@XZ @295 NONAME
??1TitleWidget@@UAE@XZ @296 NONAME
??1TopMostAction@@UAE@XZ @297 NONAME
??1TwoStateImageButton@@UAE@XZ @298 NONAME
??4?$has_slots@Vsingle_threaded@sigslot_liangshi@@@sigslot_liangshi@@QAEAAV01@ABV01@@Z @299 NONAME
??4AnimationAction@@QAEAAV0@ABV0@@Z @300 NONAME
??4BanContent@@QAEAAV0@ABV0@@Z @301 NONAME
??4BanContentVersion5@@QAEAAV0@ABV0@@Z @302 NONAME
??4BanDocument@@QAEAAV0@ABV0@@Z @303 NONAME
??4BanElement@@QAEAAV0@ABV0@@Z @304 NONAME
??4BanElementWithLabel@@QAEAAV0@ABV0@@Z @305 NONAME
??4BanFile@@QAEAAV0@ABV0@@Z @306 NONAME
??4BanScriptDeps@@QAEAAV0@ABV0@@Z @307 NONAME
??4BanStateElement@@QAEAAV0@ABV0@@Z @308 NONAME
??4BottomMostAction@@QAEAAV0@ABV0@@Z @309 NONAME
??4ChineseMessageBox@@QAEAAV0@ABV0@@Z @310 NONAME
??4CompressedImageBuffer@@QAEAAV0@ABV0@@Z @311 NONAME
??4CompressedImageElement@@QAEAAV0@ABV0@@Z @312 NONAME
??4DrawElement@@QAEAAV0@ABV0@@Z @313 NONAME
??4Element@@QAEAAV0@ABV0@@Z @314 NONAME
??4EllipseElement@@QAEAAV0@ABV0@@Z @315 NONAME
??4HeraDocument@@QAEAAV0@ABV0@@Z @316 NONAME
??4HideAction@@QAEAAV0@ABV0@@Z @317 NONAME
??4HtmlTextElement@@QAEAAV0@ABV0@@Z @318 NONAME
??4ImageBaseElement@@QAEAAV0@ABV0@@Z @319 NONAME
??4ImageBuffer@@QAEAAV0@ABV0@@Z @320 NONAME
??4ImageElement@@QAEAAV0@ABV0@@Z @321 NONAME
??4ImageStateElement@@QAEAAV0@ABV0@@Z @322 NONAME
??4KeFile@@QAEAAV0@ABV0@@Z @323 NONAME
??4LineColorAction@@QAEAAV0@ABV0@@Z @324 NONAME
??4LineElement@@QAEAAV0@ABV0@@Z @325 NONAME
??4LineStyleAction@@QAEAAV0@ABV0@@Z @326 NONAME
??4LineWidthAction@@QAEAAV0@ABV0@@Z @327 NONAME
??4MarkdownWidget@@QAEAAV0@ABV0@@Z @328 NONAME
??4MediaElement@@QAEAAV0@ABV0@@Z @329 NONAME
??4NetworkShowAction@@QAEAAV0@ABV0@@Z @330 NONAME
??4NetworkSwitchPageAction@@QAEAAV0@ABV0@@Z @331 NONAME
??4OrigialDrawElement@@QAEAAV0@ABV0@@Z @332 NONAME
??4PathElement@@QAEAAV0@ABV0@@Z @333 NONAME
??4RectElement@@QAEAAV0@ABV0@@Z @334 NONAME
??4SPoint@@QAEAAV0@ABV0@@Z @335 NONAME
??4SPoint@@QAEAAV0@ABVQPoint@@@Z @336 NONAME
??4ShowAction@@QAEAAV0@ABV0@@Z @337 NONAME
??4SizeAction@@QAEAAV0@ABV0@@Z @338 NONAME
??4SwitchPageAction@@QAEAAV0@ABV0@@Z @339 NONAME
??4TestBanElement@@QAEAAV0@ABV0@@Z @340 NONAME
??4TestBanElementWithLabel@@QAEAAV0@ABV0@@Z @341 NONAME
??4TextChangedAction@@QAEAAV0@ABV0@@Z @342 NONAME
??4TextElement@@QAEAAV0@ABV0@@Z @343 NONAME
??4TopMostAction@@QAEAAV0@ABV0@@Z @344 NONAME
??_7?$has_slots@Vsingle_threaded@sigslot_liangshi@@@sigslot_liangshi@@6B@ @345 NONAME
??_7AddCorrectDialog@@6BQObject@@@ @346 NONAME
??_7AddCorrectDialog@@6BQPaintDevice@@@ @347 NONAME
??_7AnimationAction@@6B@ @348 NONAME
??_7AnimationThread@@6B@ @349 NONAME
??_7AudioVolumeIndicator@@6BQObject@@@ @350 NONAME
??_7AudioVolumeIndicator@@6BQPaintDevice@@@ @351 NONAME
??_7BanBaseWidget@@6B@ @352 NONAME
??_7BanBaseWidget@@6BQObject@@@ @353 NONAME
??_7BanBaseWidget@@6BQPaintDevice@@@ @354 NONAME
??_7BanBrowserDialog@@6BQObject@@@ @355 NONAME
??_7BanBrowserDialog@@6BQPaintDevice@@@ @356 NONAME
??_7BanCategoryList@@6BQObject@@@ @357 NONAME
??_7BanCategoryList@@6BQPaintDevice@@@ @358 NONAME
??_7BanContent@@6B@ @359 NONAME
??_7BanContentVersion5@@6B@ @360 NONAME
??_7BanDocument@@6B@ @361 NONAME
??_7BanElement@@6B@ @362 NONAME
??_7BanElementHelper@@6BQObject@@@ @363 NONAME
??_7BanElementHelper@@6BQPaintDevice@@@ @364 NONAME
??_7BanElementScriptValue@@6B@ @365 NONAME
??_7BanElementWithLabel@@6B@ @366 NONAME
??_7BanFile@@6B@ @367 NONAME
??_7BanList@@6BQObject@@@ @368 NONAME
??_7BanList@@6BQPaintDevice@@@ @369 NONAME
??_7BanScriptDepsDialog@@6BQObject@@@ @370 NONAME
??_7BanScriptDepsDialog@@6BQPaintDevice@@@ @371 NONAME
??_7BanScriptEditor@@6BQObject@@@ @372 NONAME
??_7BanScriptEditor@@6BQPaintDevice@@@ @373 NONAME
??_7BanScriptRuntime@@6B@ @374 NONAME
??_7BanScriptWidget@@6B@ @375 NONAME
??_7BanScriptWidget@@6BQObject@@@ @376 NONAME
??_7BanScriptWidget@@6BQPaintDevice@@@ @377 NONAME
??_7BanStateElement@@6B@ @378 NONAME
??_7BanTitleWidget@@6BQObject@@@ @379 NONAME
??_7BanTitleWidget@@6BQPaintDevice@@@ @380 NONAME
??_7BottomMostAction@@6B@ @381 NONAME
??_7CameraWindow@@6BQObject@@@ @382 NONAME
??_7CameraWindow@@6BQPaintDevice@@@ @383 NONAME
??_7CheckableImageButton@@6BQObject@@@ @384 NONAME
??_7CheckableImageButton@@6BQPaintDevice@@@ @385 NONAME
??_7ColorButton@@6BQObject@@@ @386 NONAME
??_7ColorButton@@6BQPaintDevice@@@ @387 NONAME
??_7CompressedImageBuffer@@6B@ @388 NONAME
??_7CompressedImageElement@@6B@ @389 NONAME
??_7DrawElement@@6B@ @390 NONAME
??_7DrawingToolsTitleWidget@@6BQObject@@@ @391 NONAME
??_7DrawingToolsTitleWidget@@6BQPaintDevice@@@ @392 NONAME
??_7Element@@6B@ @393 NONAME
??_7ElementLabel@@6BQObject@@@ @394 NONAME
??_7ElementLabel@@6BQPaintDevice@@@ @395 NONAME
??_7ElementLabelBorder@@6BQObject@@@ @396 NONAME
??_7ElementLabelBorder@@6BQPaintDevice@@@ @397 NONAME
??_7ElementResizableTitlebar@@6BQObject@@@ @398 NONAME
??_7ElementResizableTitlebar@@6BQPaintDevice@@@ @399 NONAME
??_7EllipseElement@@6B@ @400 NONAME
??_7FileTitleWidget@@6BQObject@@@ @401 NONAME
??_7FileTitleWidget@@6BQPaintDevice@@@ @402 NONAME
??_7FourStateImageButton@@6BQObject@@@ @403 NONAME
??_7FourStateImageButton@@6BQPaintDevice@@@ @404 NONAME
??_7HackManager@@6B@ @405 NONAME
??_7HeraDocManager@@6B@ @406 NONAME
??_7HeraDocument@@6B@ @407 NONAME
??_7HeraMainWidget@@6BQObject@@@ @408 NONAME
??_7HeraMainWidget@@6BQPaintDevice@@@ @409 NONAME
??_7HeraSingletons@@6B@ @410 NONAME
??_7HideAction@@6B@ @411 NONAME
??_7HtmlElementEditor@@6BQObject@@@ @412 NONAME
??_7HtmlElementEditor@@6BQPaintDevice@@@ @413 NONAME
??_7HtmlElementPainter@@6B@ @414 NONAME
??_7HtmlElementViewer@@6BQObject@@@ @415 NONAME
??_7HtmlElementViewer@@6BQPaintDevice@@@ @416 NONAME
??_7HtmlTextElement@@6B@ @417 NONAME
??_7HtmlTextElementHelper@@6BQObject@@@ @418 NONAME
??_7HtmlTextElementHelper@@6BQPaintDevice@@@ @419 NONAME
??_7ImageBaseElement@@6B@ @420 NONAME
??_7ImageBuffer@@6B@ @421 NONAME
??_7ImageElement@@6B@ @422 NONAME
??_7ImageElementHelper@@6BQObject@@@ @423 NONAME
??_7ImageElementHelper@@6BQPaintDevice@@@ @424 NONAME
??_7ImageElementScriptValue@@6B@ @425 NONAME
??_7ImageStateElement@@6B@ @426 NONAME
??_7JSEdit@@6BQObject@@@ @427 NONAME
??_7JSEdit@@6BQPaintDevice@@@ @428 NONAME
??_7KeFile@@6B@ @429 NONAME
??_7KePages@@6BQObject@@@ @430 NONAME
??_7KePages@@6BQPaintDevice@@@ @431 NONAME
??_7KeTime@@6B@ @432 NONAME
??_7KeTitleWidget@@6BQObject@@@ @433 NONAME
??_7KeTitleWidget@@6BQPaintDevice@@@ @434 NONAME
??_7KeWidget@@6B?$has_slots@Vsingle_threaded@sigslot_liangshi@@@sigslot_liangshi@@@ @435 NONAME
??_7KeWidget@@6BHeraDocument@@@ @436 NONAME
??_7KeWidget@@6BQObject@@@ @437 NONAME
??_7KeWidget@@6BQPaintDevice@@@ @438 NONAME
??_7LineColorAction@@6B@ @439 NONAME
??_7LineElement@@6B@ @440 NONAME
??_7LineStyleAction@@6B@ @441 NONAME
??_7LineWidthAction@@6B@ @442 NONAME
??_7LiveTitleWidget@@6BQObject@@@ @443 NONAME
??_7LiveTitleWidget@@6BQPaintDevice@@@ @444 NONAME
??_7LiveWidget@@6B?$has_slots@Vsingle_threaded@sigslot_liangshi@@@sigslot_liangshi@@@ @445 NONAME
??_7LiveWidget@@6BHeraDocument@@@ @446 NONAME
??_7LiveWidget@@6BQObject@@@ @447 NONAME
??_7LiveWidget@@6BQPaintDevice@@@ @448 NONAME
??_7LokiClient@@6B@ @449 NONAME
??_7MarkdownWidget@@6B@ @450 NONAME
??_7MediaElement@@6B@ @451 NONAME
??_7NetworkShowAction@@6B@ @452 NONAME
??_7NetworkSwitchPageAction@@6B@ @453 NONAME
??_7NotifyWindow@@6BQObject@@@ @454 NONAME
??_7NotifyWindow@@6BQPaintDevice@@@ @455 NONAME
??_7NumberButton@@6BQObject@@@ @456 NONAME
??_7NumberButton@@6BQPaintDevice@@@ @457 NONAME
??_7OneImageButton@@6BQObject@@@ @458 NONAME
??_7OneImageButton@@6BQPaintDevice@@@ @459 NONAME
??_7OrigialDrawElement@@6B@ @460 NONAME
??_7PathElement@@6B@ @461 NONAME
??_7PathElementHelper@@6BQObject@@@ @462 NONAME
??_7PathElementHelper@@6BQPaintDevice@@@ @463 NONAME
??_7PlayerPage@@6BQObject@@@ @464 NONAME
??_7PlayerPage@@6BQPaintDevice@@@ @465 NONAME
??_7PlayerProgressBar@@6BQObject@@@ @466 NONAME
??_7PlayerProgressBar@@6BQPaintDevice@@@ @467 NONAME
??_7PlayerTitleWidget@@6BQObject@@@ @468 NONAME
??_7PlayerTitleWidget@@6BQPaintDevice@@@ @469 NONAME
??_7PlayerWidget@@6B@ @470 NONAME
??_7PlayerWidget@@6BQObject@@@ @471 NONAME
??_7PlayerWidget@@6BQPaintDevice@@@ @472 NONAME
??_7RectElement@@6B@ @473 NONAME
??_7ScCheckableButton@@6BQObject@@@ @474 NONAME
??_7ScCheckableButton@@6BQPaintDevice@@@ @475 NONAME
??_7ScreenshotWindow@@6BQObject@@@ @476 NONAME
??_7ScreenshotWindow@@6BQPaintDevice@@@ @477 NONAME
??_7ScriptTitleWidget@@6BQObject@@@ @478 NONAME
??_7ScriptTitleWidget@@6BQPaintDevice@@@ @479 NONAME
??_7SelectColorMenu@@6B@ @480 NONAME
??_7SelectNumberMenu@@6B@ @481 NONAME
??_7ShowAction@@6B@ @482 NONAME
??_7SizeAction@@6B@ @483 NONAME
??_7SlidePresenter@@6BQObject@@@ @484 NONAME
??_7SlidePresenter@@6BQPaintDevice@@@ @485 NONAME
??_7SwitchPageAction@@6B@ @486 NONAME
??_7SysTitleWidget@@6BQObject@@@ @487 NONAME
??_7SysTitleWidget@@6BQPaintDevice@@@ @488 NONAME
??_7TestBanElement@@6B@ @489 NONAME
??_7TestBanElementWithLabel@@6B@ @490 NONAME
??_7TestBaseWidget@@6B@ @491 NONAME
??_7TestBaseWidget@@6BQObject@@@ @492 NONAME
??_7TestBaseWidget@@6BQPaintDevice@@@ @493 NONAME
??_7TestTitleWidget@@6BQObject@@@ @494 NONAME
??_7TestTitleWidget@@6BQPaintDevice@@@ @495 NONAME
??_7TextChangedAction@@6B@ @496 NONAME
??_7TextElement@@6B@ @497 NONAME
??_7TextElementHelper@@6BQObject@@@ @498 NONAME
??_7TextElementHelper@@6BQPaintDevice@@@ @499 NONAME
??_7TextElementScriptValue@@6B@ @500 NONAME
??_7TitleButton@@6BQObject@@@ @501 NONAME
??_7TitleButton@@6BQPaintDevice@@@ @502 NONAME
??_7TitleCheckBox@@6BQObject@@@ @503 NONAME
??_7TitleCheckBox@@6BQPaintDevice@@@ @504 NONAME
??_7TitleComboBox@@6BQObject@@@ @505 NONAME
??_7TitleComboBox@@6BQPaintDevice@@@ @506 NONAME
??_7TitleWidget@@6BQObject@@@ @507 NONAME
??_7TitleWidget@@6BQPaintDevice@@@ @508 NONAME
??_7TopMostAction@@6B@ @509 NONAME
??_7TwoStateImageButton@@6BQObject@@@ @510 NONAME
??_7TwoStateImageButton@@6BQPaintDevice@@@ @511 NONAME
??_FAnimationThread@@QAEXXZ @512 NONAME
??_FBanBaseWidget@@QAEXXZ @513 NONAME
??_FBanCategoryList@@QAEXXZ @514 NONAME
??_FBanList@@QAEXXZ @515 NONAME
??_FBanScriptEditor@@QAEXXZ @516 NONAME
??_FBanScriptRuntime@@QAEXXZ @517 NONAME
??_FBanScriptWidget@@QAEXXZ @518 NONAME
??_FBanTitleWidget@@QAEXXZ @519 NONAME
??_FElementLabel@@QAEXXZ @520 NONAME
??_FElementLabelBorder@@QAEXXZ @521 NONAME
??_FElementResizableTitlebar@@QAEXXZ @522 NONAME
??_FFourStateImageButton@@QAEXXZ @523 NONAME
??_FJSEdit@@QAEXXZ @524 NONAME
??_FKePages@@QAEXXZ @525 NONAME
??_FLiveTitleWidget@@QAEXXZ @526 NONAME
??_FLiveWidget@@QAEXXZ @527 NONAME
??_FNotifyWindow@@QAEXXZ @528 NONAME
??_FPlayerProgressBar@@QAEXXZ @529 NONAME
??_FPlayerWidget@@QAEXXZ @530 NONAME
??_FScriptTitleWidget@@QAEXXZ @531 NONAME
??_FSelectColorMenu@@QAEXXZ @532 NONAME
??_FSelectNumberMenu@@QAEXXZ @533 NONAME
??_FSlidePresenter@@QAEXXZ @534 NONAME
??_FTestBaseWidget@@QAEXXZ @535 NONAME
??_FTestTitleWidget@@QAEXXZ @536 NONAME
??_FTitleButton@@QAEXXZ @537 NONAME
??_FTitleCheckBox@@QAEXXZ @538 NONAME
??_FTitleComboBox@@QAEXXZ @539 NONAME
?AddAction@PlayerWidget@@AAEXPAVAnimationAction@@@Z @540 NONAME
?AddActionTriggered@KeWidget@@AAEXAAVAnimationAction@@PAVElement@@@Z @541 NONAME
?AddActionTriggered@LiveWidget@@AAEXAAVAnimationAction@@PAVElement@@@Z @542 NONAME
?AddAnswerElement@TestBaseWidget@@QAEPAVBanElementWithLabel@@XZ @543 NONAME
?AddAnswerSc@TestBaseWidget@@QAEXVQString@@@Z @544 NONAME
?AddChildFolder@BanCategoryList@@AAEXPAVQTreeWidgetItem@@VQString@@@Z @545 NONAME
?AddChineseFunction@BanScriptRuntime@@AAEXVQScriptValue@@VQString@@P6A?AV2@PAVQScriptContext@@PAVQScriptEngine@@PAX@Z@Z @546 NONAME
?AddCustomMaterials@BanCategoryList@@AAEXXZ @547 NONAME
?AddElement@BanBaseWidget@@IAEXPAVElement@@_N11@Z @548 NONAME
?AddFile@BanScriptDeps@@QAEXVQString@@@Z @549 NONAME
?AddHera@HeraDocManager@@QAEXPAVHeraMainWidget@@@Z @550 NONAME
?AddInternalMaterials@BanCategoryList@@AAEXXZ @551 NONAME
?AddPage@KeWidget@@AAEXPAVBanBaseWidget@@_N@Z @552 NONAME
?AddPage@PlayerWidget@@AAEXPAVBanBaseWidget@@@Z @553 NONAME
?AddQuestionSc@TestBaseWidget@@QAEXVQString@@@Z @554 NONAME
?AddSlide@SlidePresenter@@QAEXPAVSlide@@@Z @555 NONAME
?AddSlideFromImage@SlidePresenter@@QAEPAVSlide@@AAVQImage@@VQSize@@@Z @556 NONAME
?AddToDrawing@BanBaseWidget@@QAEXV?$basic_string@DU?$char_traits@D@std@@V?$allocator@D@2@@std@@@Z @557 NONAME
?AgreeBoard@LokiClient@@QAEXVQString@@_N@Z @558 NONAME
?AnimatedTriggered@PlayerWidget@@AAEXXZ @559 NONAME
?ApplyBoard@LokiClient@@QAEXXZ @560 NONAME
?BeginKeFromLokiBuffer@HeraMainWidget@@SAPAV1@W4NewableDocType@@AAVQPixmap@@VQString@@@Z @561 NONAME
?BeginShow@SlidePresenter@@QAEXXZ @562 NONAME
?BoardData@LokiClient@@QAEXAAVLokiBuffer@@@Z @563 NONAME
?BoardLogin@LokiClient@@QAEXAAVQString@@@Z @564 NONAME
?CanDelete@Element@@QAE_NXZ @565 NONAME
?CanEditElementInside@BanBaseWidget@@QAE_NXZ @566 NONAME
?CanPaint@Element@@QAE_NXZ @567 NONAME
?CanPreview@Element@@QAE_NXZ @568 NONAME
?CanQuit@BanBaseWidget@@UAE_NXZ @569 NONAME
?CanQuit@KeWidget@@UAE_NXZ @570 NONAME
?CanQuit@LiveWidget@@UAE_NXZ @571 NONAME
?CanQuit@PlayerWidget@@UAE_NXZ @572 NONAME
?CapturedImageTriggered@CameraWindow@@AAEXHABVQImage@@@Z @573 NONAME
?ChangeButtonImage@TwoStateImageButton@@AAEXXZ @574 NONAME
?ChangeImageElementSize@BanBaseWidget@@QAEXV?$basic_string@DU?$char_traits@D@std@@V?$allocator@D@2@@std@@VQPoint@@VQSize@@@Z @575 NONAME
?ChangeModeCursor@BanBaseWidget@@IAEXXZ @576 NONAME
?ChangeParentWidget@ElementLabelBorder@@MAEXPAVQWidget@@@Z @577 NONAME
?ChangeParentWidget@SlidePresenter@@UAEXPAVQWidget@@@Z @578 NONAME
?Chat@LokiClient@@QAEXHHAAVQString@@@Z @579 NONAME
?ClearAll@BanBaseWidget@@IAEXXZ @580 NONAME
?Convert2QWidget@BanBaseWidget@@UAEPAVQWidget@@XZ @581 NONAME
?Convert2QWidget@KeWidget@@UAEPAVQWidget@@XZ @582 NONAME
?Convert2QWidget@LiveWidget@@UAEPAVQWidget@@XZ @583 NONAME
?Convert2QWidget@PlayerWidget@@UAEPAVQWidget@@XZ @584 NONAME
?Convert2QWidget@TestBaseWidget@@UAEPAVQWidget@@XZ @585 NONAME
?CopyFileTo@BanScriptDeps@@QAEXVQString@@0@Z @586 NONAME
?CopyTo@BanScriptDeps@@QAEXVQString@@@Z @587 NONAME
?CreateFromCopyableData@Element@@SAPAV1@AAVLokiBuffer@@@Z @588 NONAME
?CreateFromThis@BottomMostAction@@UAEPAVAnimationAction@@XZ @589 NONAME
?CreateFromThis@HideAction@@UAEPAVAnimationAction@@XZ @590 NONAME
?CreateFromThis@LineColorAction@@UAEPAVAnimationAction@@XZ @591 NONAME
?CreateFromThis@LineStyleAction@@UAEPAVAnimationAction@@XZ @592 NONAME
?CreateFromThis@LineWidthAction@@UAEPAVAnimationAction@@XZ @593 NONAME
?CreateFromThis@NetworkShowAction@@UAEPAVAnimationAction@@XZ @594 NONAME
?CreateFromThis@NetworkSwitchPageAction@@UAEPAVAnimationAction@@XZ @595 NONAME
?CreateFromThis@ShowAction@@UAEPAVAnimationAction@@XZ @596 NONAME
?CreateFromThis@SizeAction@@UAEPAVAnimationAction@@XZ @597 NONAME
?CreateFromThis@SwitchPageAction@@UAEPAVAnimationAction@@XZ @598 NONAME
?CreateFromThis@TextChangedAction@@UAEPAVAnimationAction@@XZ @599 NONAME
?CreateFromThis@TopMostAction@@UAEPAVAnimationAction@@XZ @600 NONAME
?CreateFromType@AnimationAction@@SAPAV1@W4AnimationType@@AAVLokiBuffer@@@Z @601 NONAME
?CreateFromType@Element@@SAPAV1@W4ElementType@@AAVLokiBuffer@@@Z @602 NONAME
?DeHighlightElement@BanBaseWidget@@IAEX_N@Z @603 NONAME
?DetectNeedResize@ElementLabelBorder@@AAEXABVQPoint@@@Z @604 NONAME
?DisableSeltTime@KeTime@@QAEXXZ @605 NONAME
?Disconnect@LokiClient@@QAEXXZ @606 NONAME
?Draw@HtmlElementPainter@@QAEXPAVQPainter@@VQColor@@@Z @607 NONAME
?DrawBackground@PlayerPage@@QAEXAAVQPixmap@@@Z @608 NONAME
?DrawBackground@PlayerWidget@@QAEXAAVQPixmap@@@Z @609 NONAME
?DrawHtml@HtmlElementPainter@@AAEXPAVQPainter@@VQColor@@@Z @610 NONAME
?DrawMathML@HtmlElementPainter@@AAEXPAVQPainter@@VQColor@@@Z @611 NONAME
?DrawModeTriggered@BanBaseWidget@@QAEXXZ @612 NONAME
?DrawModeTriggered@KeWidget@@QAEXXZ @613 NONAME
?DrawModeTriggered@LiveWidget@@QAEXXZ @614 NONAME
?DrawOnQtPainter@BanBaseWidget@@QAEXPAVQPainter@@@Z @615 NONAME
?DrawOnQtPainter@BanElement@@UAEXPAVQPainter@@@Z @616 NONAME
?DrawOnQtPainter@BanElementWithLabel@@UAEXPAVQPainter@@@Z @617 NONAME
?DrawOnQtPainter@BanStateElement@@UAEXPAVQPainter@@@Z @618 NONAME
?DrawOnQtPainter@HtmlTextElement@@UAEXPAVQPainter@@@Z @619 NONAME
?DrawOnQtPainter@ImageBaseElement@@UAEXPAVQPainter@@@Z @620 NONAME
?DrawOnQtPainter@ImageStateElement@@UAEXPAVQPainter@@@Z @621 NONAME
?DrawOnQtPainter@MarkdownWidget@@UAEXPAVQPainter@@@Z @622 NONAME
?DrawOnQtPainter@MediaElement@@UAEXPAVQPainter@@@Z @623 NONAME
?DrawOnQtPainter@PathElement@@UAEXPAVQPainter@@@Z @624 NONAME
?DrawOnQtPainter@TextElement@@UAEXPAVQPainter@@@Z @625 NONAME
?EclipseModeTriggered@BanBaseWidget@@QAEXXZ @626 NONAME
?EclipseModeTriggered@KeWidget@@QAEXXZ @627 NONAME
?EclipseModeTriggered@LiveWidget@@QAEXXZ @628 NONAME
?EmitAnswerChanged@TestBaseWidget@@AAEXXZ @629 NONAME
?EmitQuestionChanged@TestBaseWidget@@AAEXXZ @630 NONAME
?Enable@PlayerTitleWidget@@QAEX_N@Z @631 NONAME
?EnableButtons@DrawingToolsTitleWidget@@AAEX_N@Z @632 NONAME
?EnableDrag@TitleWidget@@QAEX_N@Z @633 NONAME
?EnableReviseDraw@DrawingToolsTitleWidget@@QAEX_N@Z @634 NONAME
?EnterSuperMode@HackManager@@QAEXXZ @635 NONAME
?FindElementByUuid@BanBaseWidget@@IAEPAVElement@@V?$basic_string@DU?$char_traits@D@std@@V?$allocator@D@2@@std@@@Z @636 NONAME
?GetActualLeftTop@HtmlTextElement@@QAE?AVQPoint@@XZ @637 NONAME
?GetActualLeftTop@TextElement@@QAE?AVQPoint@@XZ @638 NONAME
?GetActualRect@BanElement@@UAE?AVQRect@@XZ @639 NONAME
?GetActualRect@BanElementWithLabel@@UAE?AVQRect@@XZ @640 NONAME
?GetActualRect@BanStateElement@@UAE?AVQRect@@XZ @641 NONAME
?GetActualRect@HtmlTextElement@@UAE?AVQRect@@XZ @642 NONAME
?GetActualRect@ImageBaseElement@@UAE?AVQRect@@XZ @643 NONAME
?GetActualRect@ImageStateElement@@UAE?AVQRect@@XZ @644 NONAME
?GetActualRect@MarkdownWidget@@UAE?AVQRect@@XZ @645 NONAME
?GetActualRect@MediaElement@@UAE?AVQRect@@XZ @646 NONAME
?GetActualRect@PathElement@@UAE?AVQRect@@XZ @647 NONAME
?GetActualRect@TextElement@@UAE?AVQRect@@XZ @648 NONAME
?GetAnimatedTime@KeTime@@QAEHXZ @649 NONAME
?GetAnswerLabels@TestBaseWidget@@QAEXAAV?$vector@V?$basic_string@DU?$char_traits@D@std@@V?$allocator@D@2@@std@@V?$allocator@V?$basic_string@DU?$char_traits@D@std@@V?$allocator@D@2@@std@@@2@@std@@0@Z @650 NONAME
?GetBackground@PlayerWidget@@QAE?AVQPixmap@@XZ @651 NONAME
?GetBottomMostButton@ElementResizableTitlebar@@QAEPAVTitleButton@@XZ @652 NONAME
?GetButton@ChineseMessageBox@@CA?AV?$QMap@VQString@@W4StandardButton@QMessageBox@@@@W4MessageBoxButtons@1@@Z @653 NONAME
?GetButtonText@ChineseMessageBox@@CA?AVQString@@W4StandardButton@QMessageBox@@@Z @654 NONAME
?GetColor@LineColorAction@@QAEKXZ @655 NONAME
?GetColorButton@TestTitleWidget@@QAEPAVColorButton@@XZ @656 NONAME
?GetCopyableData@Element@@QAE?AVLokiBuffer@@XZ @657 NONAME
?GetCursorPoint@BanBaseWidget@@IAE?AVQPoint@@XZ @658 NONAME
?GetDebug@ScriptTitleWidget@@QAEPAVTitleButton@@XZ @659 NONAME
?GetDeleteButton@ElementResizableTitlebar@@QAEPAVTitleButton@@XZ @660 NONAME
?GetDeps@ScriptTitleWidget@@QAEPAVTitleButton@@XZ @661 NONAME
?GetDrawingCursor@BanBaseWidget@@IAE?AVQCursor@@VQString@@@Z @662 NONAME
?GetDrawingToolsWidget@TitleWidget@@QAEPAVDrawingToolsTitleWidget@@XZ @663 NONAME
?GetEditButton@ElementResizableTitlebar@@QAEPAVTitleButton@@XZ @664 NONAME
?GetEditor@ScriptTitleWidget@@QAEPAVTitleButton@@XZ @665 NONAME
?GetElementBuffer@NetworkShowAction@@QAE?AVLokiBuffer@@XZ @666 NONAME
?GetElementType@NetworkShowAction@@QAEHXZ @667 NONAME
?GetFileNames@BanScriptDeps@@QAE?AV?$vector@VQString@@V?$allocator@VQString@@@std@@@std@@XZ @668 NONAME
?GetFileWidget@TitleWidget@@QAEPAVFileTitleWidget@@XZ @669 NONAME
?GetFontSize@TextChangedAction@@QAEHXZ @670 NONAME
?GetFriendList@LokiClient@@QAEXXZ @671 NONAME
?GetHades@LiveWidget@@AAEPAVHades@@HVQString@@0_N1@Z @672 NONAME
?GetHeight@BanElementScriptValue@@AAEHXZ @673 NONAME
?GetHeight@ImageBaseElement@@QAEHXZ @674 NONAME
?GetHeight@ImageElementScriptValue@@AAEHXZ @675 NONAME
?GetHeight@SizeAction@@QAEHXZ @676 NONAME
?GetHeight@TextElementScriptValue@@AAEHXZ @677 NONAME
?GetHeraCount@HeraDocManager@@QAEHXZ @678 NONAME
?GetImage@CompressedImageBuffer@@UAE?AVQPixmap@@XZ @679 NONAME
?GetImage@ImageBuffer@@UAE?AVQPixmap@@XZ @680 NONAME
?GetKeWidget@TitleWidget@@QAEPAVKeTitleWidget@@XZ @681 NONAME
?GetLabel@BanElement@@UAE?AVQString@@XZ @682 NONAME
?GetLabel@BanElementWithLabel@@UAE?AVQString@@XZ @683 NONAME
?GetLatestSwitchBoardActions@PlayerWidget@@AAE?AV?$vector@PAVAnimationAction@@V?$allocator@PAVAnimationAction@@@std@@@std@@H@Z @684 NONAME
?GetLayer@BanBaseWidget@@QAEHXZ @685 NONAME
?GetLeftTop@ImageBaseElement@@QAE?AVQPoint@@XZ @686 NONAME
?GetLeftTop@SizeAction@@QAE?AVSPoint@@XZ @687 NONAME
?GetLineColor@Element@@QAE?AVQColor@@XZ @688 NONAME
?GetLineWidth@Element@@QAEHXZ @689 NONAME
?GetLiveWidget@TitleWidget@@QAEPAVLiveTitleWidget@@XZ @690 NONAME
?GetMaterialWidget@TitleWidget@@QAEPAVBanTitleWidget@@XZ @691 NONAME
?GetMatrix@Element@@QAE?AVSMatrix@@XZ @692 NONAME
?GetMsgPackData@BanBaseWidget@@UAE?AVLokiBuffer@@_N@Z @693 NONAME
?GetMsgPackData@BanElement@@UAE?AVLokiBuffer@@XZ @694 NONAME
?GetMsgPackData@BanElementWithLabel@@UAE?AVLokiBuffer@@XZ @695 NONAME
?GetMsgPackData@BanStateElement@@UAE?AVLokiBuffer@@XZ @696 NONAME
?GetMsgPackData@BottomMostAction@@UAE?AVLokiBuffer@@XZ @697 NONAME
?GetMsgPackData@CompressedImageElement@@UAE?AVLokiBuffer@@XZ @698 NONAME
?GetMsgPackData@DrawElement@@UAE?AVLokiBuffer@@XZ @699 NONAME
?GetMsgPackData@EllipseElement@@UAE?AVLokiBuffer@@XZ @700 NONAME
?GetMsgPackData@HideAction@@UAE?AVLokiBuffer@@XZ @701 NONAME
?GetMsgPackData@HtmlTextElement@@UAE?AVLokiBuffer@@XZ @702 NONAME
?GetMsgPackData@ImageElement@@UAE?AVLokiBuffer@@XZ @703 NONAME
?GetMsgPackData@ImageStateElement@@UAE?AVLokiBuffer@@XZ @704 NONAME
?GetMsgPackData@KeWidget@@QAE?AVLokiBuffer@@XZ @705 NONAME
?GetMsgPackData@LineColorAction@@UAE?AVLokiBuffer@@XZ @706 NONAME
?GetMsgPackData@LineElement@@UAE?AVLokiBuffer@@XZ @707 NONAME
?GetMsgPackData@LineStyleAction@@UAE?AVLokiBuffer@@XZ @708 NONAME
?GetMsgPackData@LineWidthAction@@UAE?AVLokiBuffer@@XZ @709 NONAME
?GetMsgPackData@MarkdownWidget@@UAE?AVLokiBuffer@@XZ @710 NONAME
?GetMsgPackData@MediaElement@@UAE?AVLokiBuffer@@XZ @711 NONAME
?GetMsgPackData@NetworkShowAction@@UAE?AVLokiBuffer@@XZ @712 NONAME
?GetMsgPackData@NetworkSwitchPageAction@@UAE?AVLokiBuffer@@XZ @713 NONAME
?GetMsgPackData@OrigialDrawElement@@UAE?AVLokiBuffer@@XZ @714 NONAME
?GetMsgPackData@PlayerWidget@@UAE?AVLokiBuffer@@XZ @715 NONAME
?GetMsgPackData@RectElement@@UAE?AVLokiBuffer@@XZ @716 NONAME
?GetMsgPackData@ShowAction@@UAE?AVLokiBuffer@@XZ @717 NONAME
?GetMsgPackData@SizeAction@@UAE?AVLokiBuffer@@XZ @718 NONAME
?GetMsgPackData@SwitchPageAction@@UAE?AVLokiBuffer@@XZ @719 NONAME
?GetMsgPackData@TestBanElement@@UAE?AVLokiBuffer@@XZ @720 NONAME
?GetMsgPackData@TestBanElementWithLabel@@UAE?AVLokiBuffer@@XZ @721 NONAME
?GetMsgPackData@TestBaseWidget@@UAE?AVLokiBuffer@@_N@Z @722 NONAME
?GetMsgPackData@TextChangedAction@@UAE?AVLokiBuffer@@XZ @723 NONAME
?GetMsgPackData@TextElement@@UAE?AVLokiBuffer@@XZ @724 NONAME
?GetMsgPackData@TopMostAction@@UAE?AVLokiBuffer@@XZ @725 NONAME
?GetObjUuid@BanElementHelper@@EAE?AV?$basic_string@DU?$char_traits@D@std@@V?$allocator@D@2@@std@@XZ @726 NONAME
?GetObjUuid@HtmlTextElementHelper@@EAE?AV?$basic_string@DU?$char_traits@D@std@@V?$allocator@D@2@@std@@XZ @727 NONAME
?GetObjUuid@ImageElementHelper@@EAE?AV?$basic_string@DU?$char_traits@D@std@@V?$allocator@D@2@@std@@XZ @728 NONAME
?GetObjUuid@SlidePresenter@@UAE?AV?$basic_string@DU?$char_traits@D@std@@V?$allocator@D@2@@std@@XZ @729 NONAME
?GetObjectUuid@BanBaseWidget@@QAE?AVQString@@XZ @730 NONAME
?GetObjectUuid@Element@@QAE?AV?$basic_string@DU?$char_traits@D@std@@V?$allocator@D@2@@std@@XZ @731 NONAME
?GetOpen@FileTitleWidget@@QAEPAVOneImageButton@@XZ @732 NONAME
?GetPageBuffer@NetworkSwitchPageAction@@QAE?AVLokiBuffer@@XZ @733 NONAME
?GetPasteButton@DrawingToolsTitleWidget@@QAEPAVTitleButton@@XZ @734 NONAME
?GetPixmap@CompressedImageElement@@UAE?AVQPixmap@@XZ @735 NONAME
?GetPixmap@ImageElement@@UAE?AVQPixmap@@XZ @736 NONAME
?GetPlayButton@PlayerTitleWidget@@QAEPAVTwoStateImageButton@@XZ @737 NONAME
?GetPlayerWidget@TitleWidget@@QAEPAVPlayerTitleWidget@@XZ @738 NONAME
?GetQPointFromMap@BanScriptRuntime@@AAE_NAAV?$QMap@VQString@@VQVariant@@@@AAVQPoint@@@Z @739 NONAME
?GetRedoButton@DrawingToolsTitleWidget@@QAEPAVTitleButton@@XZ @740 NONAME
?GetRun@ScriptTitleWidget@@QAEPAVTitleButton@@XZ @741 NONAME
?GetSave@FileTitleWidget@@QAEPAVOneImageButton@@XZ @742 NONAME
?GetSaveAs@FileTitleWidget@@QAEPAVOneImageButton@@XZ @743 NONAME
?GetSaveFileDialongExtension@BanBaseWidget@@UAE?AVQString@@XZ @744 NONAME
?GetSaveFileDialongExtension@KeWidget@@UAE?AVQString@@XZ @745 NONAME
?GetSaveFileDialongExtension@LiveWidget@@UAE?AVQString@@XZ @746 NONAME
?GetSaveFileDialongExtension@PlayerWidget@@UAE?AVQString@@XZ @747 NONAME
?GetScType@BanElement@@QAE?AW4ScType@@XZ @748 NONAME
?GetScriptWidget@TitleWidget@@QAEPAVScriptTitleWidget@@XZ @749 NONAME
?GetSlideCount@SlidePresenter@@QAEHXZ @750 NONAME
?GetState@BanElement@@QAE?AUState@1@XZ @751 NONAME
?GetState@ImageBaseElement@@QAE?AUState@1@XZ @752 NONAME
?GetStyle@LineStyleAction@@QAEHXZ @753 NONAME
?GetTargetElementUuid@AnimationAction@@QAE?AV?$basic_string@DU?$char_traits@D@std@@V?$allocator@D@2@@std@@XZ @754 NONAME
?GetTargetScUuid@AnimationAction@@QAE?AV?$basic_string@DU?$char_traits@D@std@@V?$allocator@D@2@@std@@XZ @755 NONAME
?GetTestWidget@TitleWidget@@QAEPAVTestTitleWidget@@XZ @756 NONAME
?GetText@TextChangedAction@@QAE?AV?$basic_string@DU?$char_traits@D@std@@V?$allocator@D@2@@std@@XZ @757 NONAME
?GetTextRect@TextElement@@AAE?AVQRectF@@_N@Z @758 NONAME
?GetTextSize@HtmlElementPainter@@QAE?AVQSizeF@@XZ @759 NONAME
?GetTime@AnimationAction@@QAEHXZ @760 NONAME
?GetTitleButton@ElementResizableTitlebar@@QAEPAVTitleButton@@XZ @761 NONAME
?GetTopMostButton@ElementResizableTitlebar@@QAEPAVTitleButton@@XZ @762 NONAME
?GetTotalTime@PlayerWidget@@QAEHXZ @763 NONAME
?GetType@BanBaseWidget@@UAE?AW4ScType@@XZ @764 NONAME
?GetType@BanElement@@UAE?AW4ElementType@@XZ @765 NONAME
?GetType@BanElementWithLabel@@UAE?AW4ElementType@@XZ @766 NONAME
?GetType@BanScriptWidget@@UAE?AW4ScType@@XZ @767 NONAME
?GetType@BanStateElement@@UAE?AW4ElementType@@XZ @768 NONAME
?GetType@BottomMostAction@@UAE?AW4AnimationType@@XZ @769 NONAME
?GetType@CompressedImageElement@@UAE?AW4ElementType@@XZ @770 NONAME
?GetType@DrawElement@@UAE?AW4ElementType@@XZ @771 NONAME
?GetType@EllipseElement@@UAE?AW4ElementType@@XZ @772 NONAME
?GetType@HideAction@@UAE?AW4AnimationType@@XZ @773 NONAME
?GetType@HtmlTextElement@@UAE?AW4ElementType@@XZ @774 NONAME
?GetType@ImageElement@@UAE?AW4ElementType@@XZ @775 NONAME
?GetType@ImageStateElement@@UAE?AW4ElementType@@XZ @776 NONAME
?GetType@KeWidget@@QAEHXZ @777 NONAME
?GetType@LineColorAction@@UAE?AW4AnimationType@@XZ @778 NONAME
?GetType@LineElement@@UAE?AW4ElementType@@XZ @779 NONAME
?GetType@LineStyleAction@@UAE?AW4AnimationType@@XZ @780 NONAME
?GetType@LineWidthAction@@UAE?AW4AnimationType@@XZ @781 NONAME
?GetType@MarkdownWidget@@UAE?AW4ElementType@@XZ @782 NONAME
?GetType@MediaElement@@UAE?AW4ElementType@@XZ @783 NONAME
?GetType@NetworkShowAction@@UAE?AW4AnimationType@@XZ @784 NONAME
?GetType@NetworkSwitchPageAction@@UAE?AW4AnimationType@@XZ @785 NONAME
?GetType@OrigialDrawElement@@UAE?AW4ElementType@@XZ @786 NONAME
?GetType@RectElement@@UAE?AW4ElementType@@XZ @787 NONAME
?GetType@ShowAction@@UAE?AW4AnimationType@@XZ @788 NONAME
?GetType@SizeAction@@UAE?AW4AnimationType@@XZ @789 NONAME
?GetType@SwitchPageAction@@UAE?AW4AnimationType@@XZ @790 NONAME
?GetType@TestBanElement@@UAE?AW4ElementType@@XZ @791 NONAME
?GetType@TestBanElementWithLabel@@UAE?AW4ElementType@@XZ @792 NONAME
?GetType@TestBaseWidget@@UAE?AW4ScType@@XZ @793 NONAME
?GetType@TextChangedAction@@UAE?AW4AnimationType@@XZ @794 NONAME
?GetType@TextElement@@UAE?AW4ElementType@@XZ @795 NONAME
?GetType@TopMostAction@@UAE?AW4AnimationType@@XZ @796 NONAME
?GetUnAnimatedActions@PlayerWidget@@AAE?AV?$vector@PAVAnimationAction@@V?$allocator@PAVAnimationAction@@@std@@@std@@H@Z @797 NONAME
?GetUndoButton@DrawingToolsTitleWidget@@QAEPAVTitleButton@@XZ @798 NONAME
?GetUnitedRect@BanBaseWidget@@IAE?AVQRect@@NN@Z @799 NONAME
?GetUuid@NetworkSwitchPageAction@@QAE?AVQString@@XZ @800 NONAME
?GetWidth@BanElementScriptValue@@AAEHXZ @801 NONAME
?GetWidth@ImageBaseElement@@QAEHXZ @802 NONAME
?GetWidth@ImageElementScriptValue@@AAEHXZ @803 NONAME
?GetWidth@LineWidthAction@@QAEHXZ @804 NONAME
?GetWidth@SizeAction@@QAEHXZ @805 NONAME
?GetWidth@TextElementScriptValue@@AAEHXZ @806 NONAME
?GotoTime@PlayerWidget@@QAEXH@Z @807 NONAME
?HadStarted@KeTime@@QAE_NXZ @808 NONAME
?HadesData@LokiClient@@QAEXVQString@@AAVLokiBuffer@@@Z @809 NONAME
?HasDepsFile@BanScriptDeps@@QAE_NVQString@@AAV2@@Z @810 NONAME
?HasFilename@BanScriptDeps@@QAE_NVQString@@@Z @811 NONAME
?HasLabel@BanElement@@UAE_NXZ @812 NONAME
?HasLabel@BanElementWithLabel@@UAE_NXZ @813 NONAME
?HasPlayed@AnimationAction@@QAE_NXZ @814 NONAME
?HasSavedPath@BanBaseWidget@@UAE_NXZ @815 NONAME
?HasSavedPath@KeWidget@@UAE_NXZ @816 NONAME
?HasSavedPath@LiveWidget@@UAE_NXZ @817 NONAME
?HasSavedPath@PlayerWidget@@UAE_NXZ @818 NONAME
?Highlight@BanElement@@UAEXPAVQWidget@@_N@Z @819 NONAME
?Highlight@Element@@UAEXPAVQWidget@@_N@Z @820 NONAME
?Highlight@HtmlTextElement@@UAEXPAVQWidget@@_N@Z @821 NONAME
?Highlight@ImageBaseElement@@UAEXPAVQWidget@@_N@Z @822 NONAME
?Highlight@PathElement@@UAEXPAVQWidget@@_N@Z @823 NONAME
?Highlight@TextElement@@UAEXPAVQWidget@@_N@Z @824 NONAME
?HighlightElement@BanBaseWidget@@IAEXVQPoint@@_N@Z @825 NONAME
?Init@BanElement@@AAEXVQPoint@@PAVBanBaseWidget@@@Z @826 NONAME
?Init@BanScriptDeps@@QAEXVQString@@@Z @827 NONAME
?Init@CompressedImageElement@@AAEXVQPoint@@AAVQPixmap@@@Z @828 NONAME
?Init@HtmlTextElement@@AAEXVQPoint@@VQString@@H@Z @829 NONAME
?Init@ImageElement@@AAEXVQPoint@@AAVQPixmap@@@Z @830 NONAME
?Init@LokiClient@@QAEXVQString@@H@Z @831 NONAME
?Init@PlayerTitleWidget@@QAEXPAVQWidget@@PAVPlayerWidget@@@Z @832 NONAME
?Init@TextElement@@AAEXVQPoint@@VQString@@H@Z @833 NONAME
?Init@TitleWidget@@AAEXVQString@@_N1111111@Z @834 NONAME
?InitDeps@BanScriptWidget@@QAEXVQString@@@Z @835 NONAME
?InitHadesFromExistingFile@KeWidget@@QAEXVQString@@HH@Z @836 NONAME
?InitInternalObjects@BanScriptRuntime@@AAEXXZ @837 NONAME
?InitKe@KeWidget@@QAEXAAVQPixmap@@@Z @838 NONAME
?InitKeTimeSlots@HeraMainWidget@@AAEXXZ @839 NONAME
?InitMedia@PlayerWidget@@AAEXVQString@@@Z @840 NONAME
?InitMenu@SelectColorMenu@@UAEXXZ @841 NONAME
?InitMenu@SelectNumberMenu@@UAEXXZ @842 NONAME
?InitScriptValue@BanElementScriptValue@@QAEXAAVQScriptValue@@@Z @843 NONAME
?InitScriptValue@ImageElementScriptValue@@QAEXAAVQScriptValue@@@Z @844 NONAME
?InitScriptValue@TextElementScriptValue@@QAEXAAVQScriptValue@@@Z @845 NONAME
?InitShortCutKey@BanBaseWidget@@IAEXXZ @846 NONAME
?InitSlots@HeraMainWidget@@AAEXXZ @847 NONAME
?InitSocketSlot@LokiClient@@AAEXXZ @848 NONAME
?InitViewer@BanElement@@IAEXXZ @849 NONAME
?InitWithTestWidget@TestTitleWidget@@QAEXPAVTestBaseWidget@@@Z @850 NONAME
?Instance@?$QtSingleton@VAddCorrectDialog@@@@SAPAVAddCorrectDialog@@XZ @851 NONAME
?Instance@?$QtSingleton@VBanBrowserDialog@@@@SAPAVBanBrowserDialog@@XZ @852 NONAME
?Instance@?$QtSingleton@VBanScriptDepsDialog@@@@SAPAVBanScriptDepsDialog@@XZ @853 NONAME
?Instance@?$QtSingleton@VCameraWindow@@@@SAPAVCameraWindow@@XZ @854 NONAME
?Instance@?$QtSingleton@VHackManager@@@@SAPAVHackManager@@XZ @855 NONAME
?Instance@?$QtSingleton@VHeraDocManager@@@@SAPAVHeraDocManager@@XZ @856 NONAME
?Instance@?$QtSingleton@VHtmlElementEditor@@@@SAPAVHtmlElementEditor@@XZ @857 NONAME
?Instance@?$QtSingleton@VKePages@@@@SAPAVKePages@@XZ @858 NONAME
?Instance@?$QtSingleton@VNotifyWindow@@@@SAPAVNotifyWindow@@XZ @859 NONAME
?Instance@?$QtSingleton@VScreenshotWindow@@@@SAPAVScreenshotWindow@@XZ @860 NONAME
?IsEmptyInside@BanElement@@QAE_NXZ @861 NONAME
?IsEnableKeSuperRevise@HackManager@@QAE_NXZ @862 NONAME
?IsHightlighting@Element@@QAE_NXZ @863 NONAME
?IsPausing@KeTime@@QAE_NXZ @864 NONAME
?IsPointIn@BanElement@@UAE_NVQPoint@@@Z @865 NONAME
?IsPointIn@BanElementWithLabel@@UAE_NVQPoint@@@Z @866 NONAME
?IsPointIn@BanStateElement@@UAE_NVQPoint@@@Z @867 NONAME
?IsPointIn@HtmlTextElement@@UAE_NVQPoint@@@Z @868 NONAME
?IsPointIn@ImageBaseElement@@UAE_NVQPoint@@@Z @869 NONAME
?IsPointIn@ImageStateElement@@UAE_NVQPoint@@@Z @870 NONAME
?IsPointIn@MarkdownWidget@@UAE_NVQPoint@@@Z @871 NONAME
?IsPointIn@MediaElement@@UAE_NVQPoint@@@Z @872 NONAME
?IsPointIn@PathElement@@UAE_NVQPoint@@@Z @873 NONAME
?IsPointIn@TextElement@@UAE_NVQPoint@@@Z @874 NONAME
?LetDrawingPixmapReady@BanBaseWidget@@IAEXXZ @875 NONAME
?LineColorChanged@BanBaseWidget@@IAEXVQColor@@_N@Z @876 NONAME
?LineColorTriggered@BanBaseWidget@@QAEXVQColor@@@Z @877 NONAME
?LineColorTriggered@KeWidget@@QAEXVQColor@@@Z @878 NONAME
?LineColorTriggered@LiveWidget@@QAEXVQColor@@@Z @879 NONAME
?LineModeTriggered@BanBaseWidget@@QAEXXZ @880 NONAME
?LineModeTriggered@KeWidget@@QAEXXZ @881 NONAME
?LineModeTriggered@LiveWidget@@QAEXXZ @882 NONAME
?LineStyleChanged@BanBaseWidget@@IAEXH_N@Z @883 NONAME
?LineStyleTriggered@BanBaseWidget@@QAEXH@Z @884 NONAME
?LineStyleTriggered@KeWidget@@QAEXH@Z @885 NONAME
?LineStyleTriggered@LiveWidget@@QAEXH@Z @886 NONAME
?LineWidthChanged@BanBaseWidget@@IAEXH_N@Z @887 NONAME
?LineWidthTriggered@BanBaseWidget@@QAEXH@Z @888 NONAME
?LineWidthTriggered@KeWidget@@QAEXH@Z @889 NONAME
?LineWidthTriggered@LiveWidget@@QAEXH@Z @890 NONAME
?LoadAsScDocument@BanFile@@SAPAVBanDocument@@VQString@@_N@Z @891 NONAME
?LoadAsScElements@BanFile@@SA?AV?$vector@PAVBanElement@@V?$allocator@PAVBanElement@@@std@@@std@@VQString@@_N@Z @892 NONAME
?LoadCacheFile@BanCategoryList@@AAEXXZ @893 NONAME
?LoadFromLokiBuffer@HeraMainWidget@@SAPAV1@W4NewableDocType@@AAVLokiBuffer@@AAVQVariant@@VQString@@@Z @894 NONAME
?LoadFromLokiBufferInLayer@HeraMainWidget@@SAPAV1@W4NewableDocType@@AAVLokiBuffer@@AAVQVariant@@H@Z @895 NONAME
?LoadKeAsKeWidget@KeFile@@SAPAVKeWidget@@VQString@@@Z @896 NONAME
?LoadKeAsPlayerWidget@KeFile@@SAPAVPlayerWidget@@VQString@@@Z @897 NONAME
?LoadKeFile@HeraMainWidget@@SAPAV1@VQString@@_N1@Z @898 NONAME
?LoadPixmap@FourStateImageButton@@QAEXVQString@@@Z @899 NONAME
?LoadPlayerActions@KeFile@@CAXPAVPlayerWidget@@VQString@@@Z @900 NONAME
?LoadPlayerFile@KeFile@@CAPAVPlayerWidget@@VQString@@@Z @901 NONAME
?LoadPlayerPage@KeFile@@CAXPAVPlayerWidget@@VQString@@@Z @902 NONAME
?LoadPlayerPages@KeFile@@CAXPAVPlayerWidget@@VQString@@@Z @903 NONAME
?LoadScDocument@BanFile@@CAPAVBanDocument@@VQString@@_N@Z @904 NONAME
?LoadScElements@BanFile@@CA_NVQString@@AAV?$vector@PAVBanElement@@V?$allocator@PAVBanElement@@@std@@@std@@_N@Z @905 NONAME
?LoadScFile@HeraMainWidget@@SAPAV1@VQString@@@Z @906 NONAME
?LoadScImageOnly@BanFile@@SA_NVQString@@AAVQPixmap@@@Z @907 NONAME
?LoadScThumbnailOnly@BanFile@@SA_NVQString@@AAVQPixmap@@@Z @908 NONAME
?Login@LokiClient@@QAEXAAVQString@@0@Z @909 NONAME
?Move@ElementLabelBorder@@IAEXHH@Z @910 NONAME
?NeedQuestionElement@TestBaseWidget@@QAEPAVBanElementWithLabel@@XZ @911 NONAME
?NeedSaveScript@BanScriptWidget@@AAEX_N@Z @912 NONAME
?NewFirstPage@LiveWidget@@AAEXXZ @913 NONAME
?OnAddAnswerTriggered@TestTitleWidget@@AAEXXZ @914 NONAME
?OnAddCorrectTriggered@TestTitleWidget@@AAEXXZ @915 NONAME
?OnAddQuestionTriggered@TestTitleWidget@@AAEXXZ @916 NONAME
?OnAddSlidePresenter@KeTitleWidget@@QAEXPAVSlidePresenter@@@Z @917 NONAME
?OnAddSlidePresenter@LiveTitleWidget@@QAEXPAVSlidePresenter@@@Z @918 NONAME
?OnAddSlidePresenterTriggered@KeWidget@@QAEXPAVSlidePresenter@@@Z @919 NONAME
?OnAddSlidePresenterTriggered@LiveWidget@@QAEXPAVSlidePresenter@@@Z @920 NONAME
?OnAddTestTriggered@KeTitleWidget@@AAEXXZ @921 NONAME
?OnAddTriggered@BanScriptDepsDialog@@AAEXXZ @922 NONAME
?OnAnimated@AnimationThread@@QAEXXZ @923 NONAME
?OnAnimationAction@BanBaseWidget@@QAEXAAVAnimationAction@@PAVElement@@@Z @924 NONAME
?OnAnimationAction@ElementLabelBorder@@QAEXAAVAnimationAction@@PAVElement@@@Z @925 NONAME
?OnAnimationAction@HtmlTextElementHelper@@QAEXAAVAnimationAction@@PAVElement@@@Z @926 NONAME
?OnAnimationAction@TextElementHelper@@QAEXAAVAnimationAction@@PAVElement@@@Z @927 NONAME
?OnApplyBoard@LiveTitleWidget@@QAEXXZ @928 NONAME
?OnApplyBoard@LokiClient@@QAEXVQString@@0@Z @929 NONAME
?OnApplyBoardTriggered@LiveWidget@@QAEXXZ @930 NONAME
?OnApplyTriggered@LiveTitleWidget@@AAEXXZ @931 NONAME
?OnAttachBanTriggered@KeWidget@@QAEXVQString@@@Z @932 NONAME
?OnAttachScFile@KeTitleWidget@@QAEXVQString@@@Z @933 NONAME
?OnAudioVolume@KeWidget@@QAEXH@Z @934 NONAME
?OnAudioVolume@LiveWidget@@QAEXH@Z @935 NONAME
?OnAudioVolumeChanged@KeWidget@@QAEXH@Z @936 NONAME
?OnAudioVolumeChanged@LiveWidget@@QAEXH@Z @937 NONAME
?OnAudioVolumeTriggered@KeTitleWidget@@QAEXH@Z @938 NONAME
?OnAudioVolumeTriggered@LiveTitleWidget@@QAEXH@Z @939 NONAME
?OnBitmapSizeChanged@BanBaseWidget@@QAEXVQSize@@@Z @940 NONAME
?OnBoardData@LokiClient@@QAEXAAVLokiBuffer@@@Z @941 NONAME
?OnBoardDataTriggered@LiveWidget@@AAEXAAVLokiBuffer@@@Z @942 NONAME
?OnBoardLogin@LokiClient@@QAEXVBoardLoginCommand@Loki@@@Z @943 NONAME
?OnBoardLoginTriggered@LiveWidget@@AAEXVBoardLoginCommand@Loki@@@Z @944 NONAME
?OnBottomMostElement@ElementLabelBorder@@QAEXPAVElement@@@Z @945 NONAME
?OnBottomMostElement@HtmlTextElementHelper@@QAEXPAVElement@@@Z @946 NONAME
?OnBottomMostElement@TextElementHelper@@QAEXPAVElement@@@Z @947 NONAME
?OnBottomMostElementTriggered@BanBaseWidget@@QAEXPAVElement@@@Z @948 NONAME
?OnBottomMostTriggered@BanElementHelper@@AAEXXZ @949 NONAME
?OnBottomMostTriggered@HtmlTextElementHelper@@AAEXXZ @950 NONAME
?OnBottomMostTriggered@ImageElementHelper@@AAEXXZ @951 NONAME
?OnBottomMostTriggered@TextElementHelper@@AAEXXZ @952 NONAME
?OnCameraPixmap@CameraWindow@@QAEXAAVQPixmap@@@Z @953 NONAME
?OnCameraTriggered@DrawingToolsTitleWidget@@AAEXXZ @954 NONAME
?OnCanShowAnswer@TestBaseWidget@@QAEX_N@Z @955 NONAME
?OnCanShowQuestion@TestBaseWidget@@QAEX_N@Z @956 NONAME
?OnCancelTriggered@AddCorrectDialog@@AAEXXZ @957 NONAME
?OnCancelTriggered@CameraWindow@@AAEXXZ @958 NONAME
?OnCandidateSdp@LiveWidget@@QAEXPBD0H0@Z @959 NONAME
?OnChat@LokiClient@@QAEXHAAVQString@@@Z @960 NONAME
?OnChecked@ScCheckableButton@@QAEXXZ @961 NONAME
?OnCheckedTriggered@DrawingToolsTitleWidget@@AAEX_N@Z @962 NONAME
?OnCheckedTriggered@ScCheckableButton@@AAEX_N@Z @963 NONAME
?OnClickTriggered@TwoStateImageButton@@AAEXXZ @964 NONAME
?OnClickedTriggered@ColorButton@@AAEXXZ @965 NONAME
?OnClickedTriggered@NumberButton@@AAEXXZ @966 NONAME
?OnClientDisconnectTriggered@LokiClient@@AAEXPAVLokiSocket@@@Z @967 NONAME
?OnClose@SysTitleWidget@@QAEXXZ @968 NONAME
?OnClose@TitleWidget@@QAEXXZ @969 NONAME
?OnCloseTriggered@SysTitleWidget@@AAEXXZ @970 NONAME
?OnClosed@HeraMainWidget@@QAEXXZ @971 NONAME
?OnColor@SelectColorMenu@@QAEXVQColor@@@Z @972 NONAME
?OnColorChanged@ColorButton@@QAEXVQColor@@@Z @973 NONAME
?OnColorTriggered@ColorButton@@AAEXVQColor@@@Z @974 NONAME
?OnCommandTriggered@LokiClient@@AAEXPAVLokiCommand@Loki@@@Z @975 NONAME
?OnConnected@LiveWidget@@AAEXXZ @976 NONAME
?OnConnected@LokiClient@@QAEXXZ @977 NONAME
?OnCopyTriggered@BanBaseWidget@@QAEXXZ @978 NONAME
?OnCurrentBanFileNameChanged@KeWidget@@AAEXVQString@@_N@Z @979 NONAME
?OnDataReadTriggered@LokiClient@@AAEXAAVLokiBuffer@@@Z @980 NONAME
?OnDeleteElement@ElementLabelBorder@@QAEXPAVElement@@@Z @981 NONAME
?OnDeleteElement@HtmlTextElementHelper@@QAEXPAVElement@@@Z @982 NONAME
?OnDeleteElement@TextElementHelper@@QAEXPAVElement@@@Z @983 NONAME
?OnDeleteTriggered@BanElementHelper@@AAEXXZ @984 NONAME
?OnDeleteTriggered@BanScriptDepsDialog@@AAEXXZ @985 NONAME
?OnDeleteTriggered@HtmlTextElementHelper@@AAEXXZ @986 NONAME
?OnDeleteTriggered@ImageElementHelper@@AAEXXZ @987 NONAME
?OnDeleteTriggered@TextElementHelper@@AAEXXZ @988 NONAME
?OnDirty@ElementLabelBorder@@QAEXXZ @989 NONAME
?OnDirty@HtmlTextElementHelper@@QAEXXZ @990 NONAME
?OnDirty@TextElementHelper@@QAEXXZ @991 NONAME
?OnDraw@DrawingToolsTitleWidget@@QAEXXZ @992 NONAME
?OnDrawTriggered@DrawingToolsTitleWidget@@AAEXXZ @993 NONAME
?OnEditTextChangeTriggered@HtmlElementEditor@@AAEXXZ @994 NONAME
?OnEditTriggered@BanElementHelper@@AAEXXZ @995 NONAME
?OnEditTriggered@HtmlTextElementHelper@@AAEXXZ @996 NONAME
?OnEllipse@DrawingToolsTitleWidget@@QAEXXZ @997 NONAME
?OnEllipseTriggered@DrawingToolsTitleWidget@@AAEXXZ @998 NONAME
?OnEnd@ScreenshotWindow@@QAEXXZ @999 NONAME
?OnFolderSelected@BanCategoryList@@QAEXVQString@@@Z @1000 NONAME
?OnFolderTriggered@BanBrowserDialog@@AAEXVQString@@@Z @1001 NONAME
?OnFolderTriggered@BanList@@QAEXVQString@@@Z @1002 NONAME
?OnFullscreenTriggered@PlayerTitleWidget@@AAEXXZ @1003 NONAME
?OnFullscreenTriggered@SysTitleWidget@@AAEXXZ @1004 NONAME
?OnGetCorrect@AddCorrectDialog@@QAEXAAV?$vector@V?$basic_string@DU?$char_traits@D@std@@V?$allocator@D@2@@std@@V?$allocator@V?$basic_string@DU?$char_traits@D@std@@V?$allocator@D@2@@std@@@2@@std@@@Z @1005 NONAME
?OnGetCorrect@TestTitleWidget@@QAEXAAV?$vector@V?$basic_string@DU?$char_traits@D@std@@V?$allocator@D@2@@std@@V?$allocator@V?$basic_string@DU?$char_traits@D@std@@V?$allocator@D@2@@std@@@2@@std@@@Z @1006 NONAME
?OnGetCorrectTriggered@TestBaseWidget@@QAEXAAV?$vector@V?$basic_string@DU?$char_traits@D@std@@V?$allocator@D@2@@std@@V?$allocator@V?$basic_string@DU?$char_traits@D@std@@V?$allocator@D@2@@std@@@2@@std@@@Z @1007 NONAME
?OnGetFriendList@LokiClient@@QAEXAAV?$vector@ULokiFriend@Loki@@V?$allocator@ULokiFriend@Loki@@@std@@@std@@@Z @1008 NONAME
?OnGetLocalCamera@DrawingToolsTitleWidget@@QAE_NXZ @1009 NONAME
?OnGetLocalCameraTriggered@LiveWidget@@QAE_NXZ @1010 NONAME
?OnGetPixmap@DrawingToolsTitleWidget@@QAEXAAVQPixmap@@@Z @1011 NONAME
?OnGetScBuffer@HeraMainWidget@@QAEXAAVLokiBuffer@@AAVQVariant@@_N@Z @1012 NONAME
?OnGetScBufferTriggered@BanBaseWidget@@QAEXAAVLokiBuffer@@AAVQVariant@@_N@Z @1013 NONAME
?OnGotoPosition@PlayerTitleWidget@@QAEXN@Z @1014 NONAME
?OnGotoPosition@PlayerWidget@@AAEXH@Z @1015 NONAME
?OnGotoPositionTriggered@PlayerWidget@@QAEXN@Z @1016 NONAME
?OnHadesData@LokiClient@@QAEXVQString@@0AAVLokiBuffer@@@Z @1017 NONAME
?OnHadesDataTriggered@LiveWidget@@AAEXVQString@@0AAVLokiBuffer@@@Z @1018 NONAME
?OnHadesTime@KeTime@@QAEXH@Z @1019 NONAME
?OnHavenotSaveRelatedElement@HeraMainWidget@@QAEXAAVQVariant@@@Z @1020 NONAME
?OnHavenotSaveRelatedElementTriggered@TestBaseWidget@@QAEXAAVQVariant@@@Z @1021 NONAME
?OnHeraCountChanged@HeraDocManager@@QAEXH@Z @1022 NONAME
?OnHideTriggered@NotifyWindow@@AAEXXZ @1023 NONAME
?OnHighlightElementChangeTriggered@DrawingToolsTitleWidget@@QAEXPAVElement@@@Z @1024 NONAME
?OnHighlightElementChanged@BanBaseWidget@@QAEXPAVElement@@@Z @1025 NONAME
?OnHighlightElementChanged@KeWidget@@QAEXPAVElement@@@Z @1026 NONAME
?OnHighlightElementChanged@LiveWidget@@QAEXPAVElement@@@Z @1027 NONAME
?OnImportTriggered@KeTitleWidget@@AAEXXZ @1028 NONAME
?OnImportTriggered@LiveTitleWidget@@AAEXXZ @1029 NONAME
?OnInsertBanTriggered@BanBaseWidget@@QAEXVQString@@@Z @1030 NONAME
?OnInsertBanTriggered@KeWidget@@QAEXVQString@@@Z @1031 NONAME
?OnInsertBanTriggered@LiveWidget@@QAEXVQString@@@Z @1032 NONAME
?OnInsertPixmapBackgroundTriggered@BanBaseWidget@@QAEXAAVQPixmap@@@Z @1033 NONAME
?OnInsertPixmapBackgroundTriggered@KeWidget@@QAEXAAVQPixmap@@@Z @1034 NONAME
?OnInsertPixmapBackgroundTriggered@LiveWidget@@QAEXAAVQPixmap@@@Z @1035 NONAME
?OnInsertPixmapTriggered@BanBaseWidget@@QAEXAAVQPixmap@@@Z @1036 NONAME
?OnInsertPixmapTriggered@KeWidget@@QAEXAAVQPixmap@@@Z @1037 NONAME
?OnInsertPixmapTriggered@LiveWidget@@QAEXAAVQPixmap@@@Z @1038 NONAME
?OnInsertScFile@BanTitleWidget@@QAEXVQString@@@Z @1039 NONAME
?OnInsertScFile@KeTitleWidget@@QAEXVQString@@@Z @1040 NONAME
?OnInsertScFile@LiveTitleWidget@@QAEXVQString@@@Z @1041 NONAME
?OnInsertTriggered@BanTitleWidget@@AAEXXZ @1042 NONAME
?OnInsertTriggered@KeTitleWidget@@AAEXXZ @1043 NONAME
?OnInsertTriggered@LiveTitleWidget@@AAEXXZ @1044 NONAME
?OnItemClickedTriggered@BanCategoryList@@AAEXPAVQTreeWidgetItem@@H@Z @1045 NONAME
?OnItemDoubleClickTriggered@BanList@@AAEXPAVQListWidgetItem@@@Z @1046 NONAME
?OnItemDoubleClickTriggered@KePages@@AAEXPAVQListWidgetItem@@@Z @1047 NONAME
?OnLine@DrawingToolsTitleWidget@@QAEXXZ @1048 NONAME
?OnLineColorChanged@DrawingToolsTitleWidget@@QAEXVQColor@@@Z @1049 NONAME
?OnLineColorTriggered@SelectColorMenu@@AAEXXZ @1050 NONAME
?OnLineStyleChanged@DrawingToolsTitleWidget@@QAEXH@Z @1051 NONAME
?OnLineTriggered@DrawingToolsTitleWidget@@AAEXXZ @1052 NONAME
?OnLineWidth@SelectNumberMenu@@AAEXXZ @1053 NONAME
?OnLineWidthChanged@DrawingToolsTitleWidget@@QAEXH@Z @1054 NONAME
?OnListItemChangedTriggered@BanScriptDepsDialog@@AAEXXZ @1055 NONAME
?OnListItemDoubleClickedTriggered@BanScriptDepsDialog@@AAEXPAVQListWidgetItem@@@Z @1056 NONAME
?OnLiveCanApplyAndTake@LiveWidget@@QAEX_N00@Z @1057 NONAME
?OnLiveCanApplyAndTakeTriggered@HeraMainWidget@@QAEX_N00@Z @1058 NONAME
?OnLogin@LokiClient@@QAEX_NAAVQString@@@Z @1059 NONAME
?OnMax@SysTitleWidget@@QAEXXZ @1060 NONAME
?OnMax@TitleWidget@@QAEXXZ @1061 NONAME
?OnMaxTriggered@SysTitleWidget@@QAEXXZ @1062 NONAME
?OnMin@SysTitleWidget@@QAEXXZ @1063 NONAME
?OnMin@TitleWidget@@QAEXXZ @1064 NONAME
?OnMinTriggered@SysTitleWidget@@AAEXXZ @1065 NONAME
?OnNewPage@KeTitleWidget@@QAEXXZ @1066 NONAME
?OnNewPage@LiveTitleWidget@@QAEXXZ @1067 NONAME
?OnNewPageTriggered@KeTitleWidget@@AAEXXZ @1068 NONAME
?OnNewPageTriggered@KeWidget@@QAEXXZ @1069 NONAME
?OnNewPageTriggered@LiveTitleWidget@@AAEXXZ @1070 NONAME
?OnNewPageTriggered@LiveWidget@@QAEXXZ @1071 NONAME
?OnNewPageWithBackground@KeTitleWidget@@QAEXAAVQImage@@@Z @1072 NONAME
?OnNewPageWithBackground@LiveTitleWidget@@QAEXAAVQImage@@@Z @1073 NONAME
?OnNewPageWithBackgroundTriggered@KeWidget@@QAEXAAVQImage@@@Z @1074 NONAME
?OnNewPageWithBackgroundTriggered@LiveWidget@@QAEXAAVQImage@@@Z @1075 NONAME
?OnNextAction@SlidePresenter@@AAEXXZ @1076 NONAME
?OnNextPage@KeTitleWidget@@QAEXXZ @1077 NONAME
?OnNextPage@LiveTitleWidget@@QAEXXZ @1078 NONAME
?OnNextPageTriggered@KeWidget@@QAEXXZ @1079 NONAME
?OnNextPageTriggered@LiveWidget@@QAEXXZ @1080 NONAME
?OnOKTriggered@AddCorrectDialog@@AAEXXZ @1081 NONAME
?OnOKTriggered@CameraWindow@@AAEXXZ @1082 NONAME
?OnOKTriggered@HtmlElementEditor@@AAEXXZ @1083 NONAME
?OnOKTriggered@ScreenshotWindow@@AAEXXZ @1084 NONAME
?OnOpenFileTriggered@HeraMainWidget@@AAEXXZ @1085 NONAME
?OnOpenKeFile@HeraMainWidget@@QAEXVQString@@@Z @1086 NONAME
?OnOpenTriggered@HtmlElementEditor@@AAEXXZ @1087 NONAME
?OnPEllipse@DrawingToolsTitleWidget@@QAEXXZ @1088 NONAME
?OnPEllipseTriggered@DrawingToolsTitleWidget@@AAEXXZ @1089 NONAME
?OnPRect@DrawingToolsTitleWidget@@QAEXXZ @1090 NONAME
?OnPRectTriggered@DrawingToolsTitleWidget@@AAEXXZ @1091 NONAME
?OnPageSizeChange@KeWidget@@QAEXVQSize@@@Z @1092 NONAME
?OnPageSizeChange@LiveWidget@@AAEXVQSize@@@Z @1093 NONAME
?OnPaste@KeWidget@@QAEXXZ @1094 NONAME
?OnPaste@LiveWidget@@QAEXXZ @1095 NONAME
?OnPasteTriggered@BanBaseWidget@@QAEXXZ @1096 NONAME
?OnPause@KeTime@@QAEXXZ @1097 NONAME
?OnPauseTriggered@DrawingToolsTitleWidget@@QAEXXZ @1098 NONAME
?OnPauseTriggered@KeTitleWidget@@QAEXXZ @1099 NONAME
?OnPauseTriggered@KeWidget@@QAEXXZ @1100 NONAME
?OnPauseTriggered@PlayerTitleWidget@@QAEXXZ @1101 NONAME
?OnPauseTriggered@PlayerWidget@@QAEXXZ @1102 NONAME
?OnPenColorChangedTriggered@DrawingToolsTitleWidget@@AAEXVQColor@@@Z @1103 NONAME
?OnPenStyleChangeTriggered@DrawingToolsTitleWidget@@AAEXABVQString@@@Z @1104 NONAME
?OnPenWidthChangedTriggered@DrawingToolsTitleWidget@@AAEXH@Z @1105 NONAME
?OnPlayTriggered@PlayerTitleWidget@@AAEXXZ @1106 NONAME
?OnPlayTriggered@PlayerWidget@@QAEXXZ @1107 NONAME
?OnPreview@KeTitleWidget@@QAEXXZ @1108 NONAME
?OnPreviewTriggered@HeraMainWidget@@AAEXXZ @1109 NONAME
?OnPreviewTriggered@KeTitleWidget@@AAEXXZ @1110 NONAME
?OnPreviousAction@SlidePresenter@@AAEXXZ @1111 NONAME
?OnPreviousPage@KeTitleWidget@@QAEXXZ @1112 NONAME
?OnPreviousPage@LiveTitleWidget@@QAEXXZ @1113 NONAME
?OnPreviousPageTriggered@KeWidget@@QAEXXZ @1114 NONAME
?OnPreviousPageTriggered@LiveWidget@@QAEXXZ @1115 NONAME
?OnQuestionTriggered@PlayerTitleWidget@@AAEXXZ @1116 NONAME
?OnReRecordTriggered@PlayerTitleWidget@@AAEXXZ @1117 NONAME
?OnRecordTime@KeWidget@@QAEXH@Z @1118 NONAME
?OnRecordTriggered@KeWidget@@QAEXXZ @1119 NONAME
?OnRecrodButtonTriggered@KeTitleWidget@@AAEXXZ @1120 NONAME
?OnRect@DrawingToolsTitleWidget@@QAEXXZ @1121 NONAME
?OnRectTriggered@DrawingToolsTitleWidget@@AAEXXZ @1122 NONAME
?OnRedo@KeWidget@@QAEXXZ @1123 NONAME
?OnRedo@LiveWidget@@QAEXXZ @1124 NONAME
?OnRedoChanged@BanBaseWidget@@QAEX_N@Z @1125 NONAME
?OnRedoTriggered@BanBaseWidget@@QAEXXZ @1126 NONAME
?OnReset@KeTime@@QAEXXZ @1127 NONAME
?OnResetTriggered@PlayerTitleWidget@@QAEXXZ @1128 NONAME
?OnResetTriggered@PlayerWidget@@QAEXXZ @1129 NONAME
?OnReviseChecked@DrawingToolsTitleWidget@@AAEXH@Z @1130 NONAME
?OnRunScriptTriggered@BanScriptWidget@@QAEXXZ @1131 NONAME
?OnSaveAsTriggered@BanScriptDepsDialog@@AAEXXZ @1132 NONAME
?OnSaveAsTriggered@HeraMainWidget@@AAEXXZ @1133 NONAME
?OnSaveFileNameChanged@BanBaseWidget@@QAEXVQString@@_N@Z @1134 NONAME
?OnSaveFileNameChanged@KeWidget@@QAEXVQString@@_N@Z @1135 NONAME
?OnSaveFileNameChanged@PlayerWidget@@QAEXVQString@@_N@Z @1136 NONAME
?OnSaveTriggered@HeraMainWidget@@AAEXXZ @1137 NONAME
?OnSaveTriggered@HtmlElementEditor@@AAEXXZ @1138 NONAME
?OnScFileSelect@BanList@@QAEXVQString@@@Z @1139 NONAME
?OnScFileSelected@BanBrowserDialog@@QAEXVQString@@@Z @1140 NONAME
?OnScreenPixmap@ScreenshotWindow@@QAEXAAVQPixmap@@@Z @1141 NONAME
?OnScreenshotTriggered@DrawingToolsTitleWidget@@AAEXXZ @1142 NONAME
?OnScriptDebuggerTriggered@BanScriptWidget@@QAEXXZ @1143 NONAME
?OnScriptEditorTriggered@BanScriptWidget@@QAEXXZ @1144 NONAME
?OnSdp@LiveWidget@@QAEXPBD00@Z @1145 NONAME
?OnSelect@DrawingToolsTitleWidget@@QAEXXZ @1146 NONAME
?OnSelectPage@KePages@@QAEXH@Z @1147 NONAME
?OnSelectPageTriggered@KeWidget@@AAEXH@Z @1148 NONAME
?OnSelectPageTriggered@LiveWidget@@AAEXH@Z @1149 NONAME
?OnSelectTriggered@DrawingToolsTitleWidget@@AAEXXZ @1150 NONAME
?OnSetTitleTriggered@TitleWidget@@QAEXVQString@@_N@Z @1151 NONAME
?OnShowAnswerTriggered@TestTitleWidget@@AAEX_N@Z @1152 NONAME
?OnShowDeps@BanScriptWidget@@QAEXXZ @1153 NONAME
?OnShowQuestionTriggered@TestTitleWidget@@AAEX_N@Z @1154 NONAME
?OnShowTriggered@HeraMainWidget@@QAEXXZ @1155 NONAME
?OnSliderChangeTriggered@PlayerTitleWidget@@AAEXH@Z @1156 NONAME
?OnSocketError@LokiClient@@QAEXW4SocketError@QAbstractSocket@@@Z @1157 NONAME
?OnSocketErrorTriggered@LiveWidget@@AAEXW4SocketError@QAbstractSocket@@@Z @1158 NONAME
?OnStart@KeTime@@QAEXXZ @1159 NONAME
?OnStartTriggered@DrawingToolsTitleWidget@@QAEXXZ @1160 NONAME
?OnStartTriggered@KeTitleWidget@@QAEXXZ @1161 NONAME
?OnStartTriggered@PlayerTitleWidget@@QAEXXZ @1162 NONAME
?OnStudentApplyBoardTriggered@LiveWidget@@AAEXVQString@@0@Z @1163 NONAME
?OnSwitchPage@KeTitleWidget@@QAEXXZ @1164 NONAME
?OnSwitchPage@LiveTitleWidget@@QAEXXZ @1165 NONAME
?OnSwitchPageTriggered@KeTitleWidget@@AAEXXZ @1166 NONAME
?OnSwitchPageTriggered@KeWidget@@QAEXXZ @1167 NONAME
?OnSwitchPageTriggered@LiveTitleWidget@@AAEXXZ @1168 NONAME
?OnSwitchPageTriggered@LiveWidget@@QAEXXZ @1169 NONAME
?OnTakeBoard@LiveTitleWidget@@QAEXXZ @1170 NONAME
?OnTakeBoard@LokiClient@@QAEXXZ @1171 NONAME
?OnTakeBoardTriggered@LiveWidget@@QAEXXZ @1172 NONAME
?OnTakeTriggered@LiveTitleWidget@@AAEXXZ @1173 NONAME
?OnTeacherAgreeBoard@LokiClient@@QAEX_N0@Z @1174 NONAME
?OnTeacherAgreeBoardTriggered@LiveWidget@@AAEX_N0@Z @1175 NONAME
?OnTeacherTakeBoardTriggered@LiveWidget@@AAEXXZ @1176 NONAME
?OnTestTriggered@PlayerTitleWidget@@AAEXXZ @1177 NONAME
?OnTextChanged@TextElementHelper@@AAEXXZ @1178 NONAME
?OnTimeUpdateTriggered@KeTitleWidget@@QAEXH@Z @1179 NONAME
?OnTimeUpdateTriggered@PlayerTitleWidget@@QAEXH@Z @1180 NONAME
?OnTimerTriggered@KeTime@@AAEXXZ @1181 NONAME
?OnTitleTriggered@BanElementHelper@@AAEXXZ @1182 NONAME
?OnTopMostElement@ElementLabelBorder@@QAEXPAVElement@@@Z @1183 NONAME
?OnTopMostElement@HtmlTextElementHelper@@QAEXPAVElement@@@Z @1184 NONAME
?OnTopMostElement@TextElementHelper@@QAEXPAVElement@@@Z @1185 NONAME
?OnTopMostElementTriggered@BanBaseWidget@@QAEXPAVElement@@@Z @1186 NONAME
?OnTopMostTriggered@BanElementHelper@@AAEXXZ @1187 NONAME
?OnTopMostTriggered@HtmlTextElementHelper@@AAEXXZ @1188 NONAME
?OnTopMostTriggered@ImageElementHelper@@AAEXXZ @1189 NONAME
?OnTopMostTriggered@TextElementHelper@@AAEXXZ @1190 NONAME
?OnUnChecked@ScCheckableButton@@QAEXXZ @1191 NONAME
?OnUndo@KeWidget@@QAEXXZ @1192 NONAME
?OnUndo@LiveWidget@@QAEXXZ @1193 NONAME
?OnUndoChanged@BanBaseWidget@@QAEX_N@Z @1194 NONAME
?OnUndoTriggered@BanBaseWidget@@QAEXXZ @1195 NONAME
?OnUpdateCurrentTime@KeTime@@QAEXH@Z @1196 NONAME
?OnWidth@SelectNumberMenu@@QAEXH@Z @1197 NONAME
?OnWidthChanged@NumberButton@@QAEXH@Z @1198 NONAME
?OnWidthTriggered@NumberButton@@AAEXH@Z @1199 NONAME
?OpenFile@BanScriptDeps@@QAEXVQString@@@Z @1200 NONAME
?PaintInternal@CheckableImageButton@@AAEXHHH@Z @1201 NONAME
?PaintInternal@OneImageButton@@AAEXHHH@Z @1202 NONAME
?PaintInternal@TwoStateImageButton@@AAEXHHH@Z @1203 NONAME
?PaintPixmap@ScreenshotWindow@@AAEXAAVQPixmap@@@Z @1204 NONAME
?Pause@KeTime@@QAEXXZ @1205 NONAME
?PerectRectModeTriggered@BanBaseWidget@@QAEXXZ @1206 NONAME
?PerectRectModeTriggered@KeWidget@@QAEXXZ @1207 NONAME
?PerectRectModeTriggered@LiveWidget@@QAEXXZ @1208 NONAME
?PerfectEclipseModeTriggered@BanBaseWidget@@QAEXXZ @1209 NONAME
?PerfectEclipseModeTriggered@KeWidget@@QAEXXZ @1210 NONAME
?PerfectEclipseModeTriggered@LiveWidget@@QAEXXZ @1211 NONAME
?PlayAction@LiveWidget@@AAEXPAVAnimationAction@@@Z @1212 NONAME
?PlayAction@PlayerPage@@QAEXPAVAnimationAction@@@Z @1213 NONAME
?PlayActions@PlayerWidget@@AAEXV?$vector@PAVAnimationAction@@V?$allocator@PAVAnimationAction@@@std@@@std@@@Z @1214 NONAME
?PlayBottomMostAction@LiveWidget@@AAEXPAVBottomMostAction@@@Z @1215 NONAME
?PlayBottomMostAction@PlayerPage@@QAEXPAVBottomMostAction@@@Z @1216 NONAME
?PlayHideAction@LiveWidget@@AAEXPAVHideAction@@@Z @1217 NONAME
?PlayHideAction@PlayerPage@@QAEXPAVHideAction@@@Z @1218 NONAME
?PlayLineColorAction@LiveWidget@@AAEXPAVLineColorAction@@@Z @1219 NONAME
?PlayLineColorAction@PlayerPage@@QAEXPAVLineColorAction@@@Z @1220 NONAME
?PlayLineStyleAction@LiveWidget@@AAEXPAVLineStyleAction@@@Z @1221 NONAME
?PlayLineStyleAction@PlayerPage@@QAEXPAVLineStyleAction@@@Z @1222 NONAME
?PlayLineWidthAction@LiveWidget@@AAEXPAVLineWidthAction@@@Z @1223 NONAME
?PlayLineWidthAction@PlayerPage@@QAEXPAVLineWidthAction@@@Z @1224 NONAME
?PlayNetworkShowAction@LiveWidget@@AAEXPAVNetworkShowAction@@@Z @1225 NONAME
?PlayNetworkSwitchPageAction@LiveWidget@@AAEXPAVNetworkSwitchPageAction@@@Z @1226 NONAME
?PlayShowAction@PlayerPage@@QAEXPAVShowAction@@@Z @1227 NONAME
?PlaySizeAction@LiveWidget@@AAEXPAVSizeAction@@@Z @1228 NONAME
?PlaySizeAction@PlayerPage@@QAEXPAVSizeAction@@@Z @1229 NONAME
?PlaySwitchPageAction@PlayerWidget@@AAEXPAVSwitchPageAction@@@Z @1230 NONAME
?PlayTextChangedAction@LiveWidget@@AAEXPAVTextChangedAction@@@Z @1231 NONAME
?PlayTextChangedAction@PlayerPage@@QAEXPAVTextChangedAction@@@Z @1232 NONAME
?PlayTopMostAction@LiveWidget@@AAEXPAVTopMostAction@@@Z @1233 NONAME
?PlayTopMostAction@PlayerPage@@QAEXPAVTopMostAction@@@Z @1234 NONAME
?PointFunction@BanScriptRuntime@@CA?AVQScriptValue@@PAVQScriptContext@@PAVQScriptEngine@@@Z @1235 NONAME
?RectModeTriggered@BanBaseWidget@@QAEXXZ @1236 NONAME
?RectModeTriggered@KeWidget@@QAEXXZ @1237 NONAME
?RectModeTriggered@LiveWidget@@QAEXXZ @1238 NONAME
?ReleaseMedia@PlayerWidget@@AAEXXZ @1239 NONAME
?RemoteHera@HeraDocManager@@QAEXPAVHeraMainWidget@@@Z @1240 NONAME
?Remove@BanScriptDeps@@QAEXVQString@@@Z @1241 NONAME
?RemoveDrawingElementTriggered@BanBaseWidget@@UAEXPAVElement@@@Z @1242 NONAME
?RemoveDrawingElementTriggered@TestBaseWidget@@UAEXPAVElement@@@Z @1243 NONAME
?RemoveFromDrawing@BanBaseWidget@@QAEXV?$basic_string@DU?$char_traits@D@std@@V?$allocator@D@2@@std@@@Z @1244 NONAME
?RenderPixmap@BanBaseWidget@@IAEXAAVQPixmap@@@Z @1245 NONAME
?Repaint@BanBaseWidget@@IAEX_N@Z @1246 NONAME
?Reset@Element@@QAEX_N@Z @1247 NONAME
?Reset@KeTime@@QAEXXZ @1248 NONAME
?ResetElement@PlayerPage@@QAEXXZ @1249 NONAME
?ResetElementToInit@BanBaseWidget@@IAEXXZ @1250 NONAME
?ResetPages@PlayerWidget@@AAEXXZ @1251 NONAME
?ReviseDrawTriggered@BanBaseWidget@@QAEX_N@Z @1252 NONAME
?ReviseDrawTriggered@KeWidget@@QAEX_N@Z @1253 NONAME
?ReviseDrawTriggered@LiveWidget@@QAEX_N@Z @1254 NONAME
?RunInDebugger@BanScriptRuntime@@QAE?AVQScriptValue@@ABVQString@@@Z @1255 NONAME
?RunScript@BanScriptRuntime@@QAE?AVQScriptValue@@ABVQString@@@Z @1256 NONAME
?RunScript@BanScriptWidget@@QAEXVQString@@@Z @1257 NONAME
?SaveActions@KeFile@@AAEXVQString@@@Z @1258 NONAME
?SaveAsDocument@BanBaseWidget@@UAE_NVQString@@@Z @1259 NONAME
?SaveAsDocument@KeWidget@@UAE_NVQString@@@Z @1260 NONAME
?SaveAsDocument@LiveWidget@@UAE_NVQString@@@Z @1261 NONAME
?SaveAsDocument@PlayerWidget@@UAE_NVQString@@@Z @1262 NONAME
?SaveAudio@KeFile@@AAEXVQString@@@Z @1263 NONAME
?SaveCacheFile@BanCategoryList@@AAEXXZ @1264 NONAME
?SaveDocument@BanBaseWidget@@UAE_NVQString@@@Z @1265 NONAME
?SaveDocument@BanScriptWidget@@UAE_NVQString@@@Z @1266 NONAME
?SaveDocument@KeWidget@@UAE_NVQString@@@Z @1267 NONAME
?SaveDocument@LiveWidget@@UAE_NVQString@@@Z @1268 NONAME
?SaveDocument@PlayerWidget@@UAE_NVQString@@@Z @1269 NONAME
?SaveFile@BanFile@@QAEXVQString@@@Z @1270 NONAME
?SaveFile@KeFile@@QAEXVQString@@@Z @1271 NONAME
?SaveFileWithAllElements@BanFile@@QAEXVQString@@@Z @1272 NONAME
?SaveImageFile@BanFile@@AAEXVQString@@@Z @1273 NONAME
?SaveInitState@BanElement@@UAEXXZ @1274 NONAME
?SaveInitState@BanStateElement@@UAEXXZ @1275 NONAME
?SaveInitState@HtmlTextElement@@UAEXXZ @1276 NONAME
?SaveInitState@ImageBaseElement@@UAEXXZ @1277 NONAME
?SaveInitState@ImageStateElement@@UAEXXZ @1278 NONAME
?SaveInitState@PathElement@@UAEXXZ @1279 NONAME
?SaveInitState@TextElement@@UAEXXZ @1280 NONAME
?SavePages@KeFile@@AAEXVQString@@@Z @1281 NONAME
?SaveScriptDepsFiles@BanFile@@AAEXVQString@@@Z @1282 NONAME
?SaveTests@KeFile@@AAEXVQString@@@Z @1283 NONAME
?SaveThisFile@BanFile@@AAEXVQString@@_N@Z @1284 NONAME
?SaveThisFile@KeFile@@AAEXVQString@@@Z @1285 NONAME
?SaveThumbnailFile@BanFile@@AAEXVQString@@@Z @1286 NONAME
?ScriptValue@BanElementScriptValue@@QAE?AVQScriptValue@@XZ @1287 NONAME
?ScriptValue@ImageElementScriptValue@@QAE?AVQScriptValue@@XZ @1288 NONAME
?ScriptValue@TextElementScriptValue@@QAE?AVQScriptValue@@XZ @1289 NONAME
?SelectModeTriggered@BanBaseWidget@@QAEXXZ @1290 NONAME
?SelectModeTriggered@KeWidget@@QAEXXZ @1291 NONAME
?SelectModeTriggered@LiveWidget@@QAEXXZ @1292 NONAME
?SendData@LokiClient@@AAEXHAAVLokiBuffer@@@Z @1293 NONAME
?SendSizeAnimation@BanElementHelper@@EAEXABVQSize@@@Z @1294 NONAME
?SendSizeAnimation@ElementLabelBorder@@MAEXABVQSize@@@Z @1295 NONAME
?SendSizeAnimation@HtmlTextElementHelper@@EAEXABVQSize@@@Z @1296 NONAME
?SendSizeAnimation@ImageElementHelper@@EAEXABVQSize@@@Z @1297 NONAME
?SendSizeAnimation@SlidePresenter@@UAEXABVQSize@@@Z @1298 NONAME
?SendSizeAnimation@TextElementHelper@@AAEXXZ @1299 NONAME
?SendSwitchPageAnimation@KeWidget@@AAEXPAVBanBaseWidget@@@Z @1300 NONAME
?SendSwitchPageAnimation@LiveWidget@@AAEXPAVBanBaseWidget@@@Z @1301 NONAME
?SetAllSlidesBanBase@SlidePresenter@@QAEXXZ @1302 NONAME
?SetAnimatedTime@KeTime@@QAEXH@Z @1303 NONAME
?SetBackgroundColor@ColorButton@@AAEXVQColor@@@Z @1304 NONAME
?SetBanElement@BanStateElement@@QAEXPAVBanElement@@@Z @1305 NONAME
?SetCanDelete@Element@@QAEX_N@Z @1306 NONAME
?SetCanPaint@Element@@QAEX_N@Z @1307 NONAME
?SetCanPreview@Element@@QAEX_N@Z @1308 NONAME
?SetChecked@TwoStateImageButton@@QAEX_N@Z @1309 NONAME
?SetCorrectLabel@TestBaseWidget@@QAEXAAV?$vector@V?$basic_string@DU?$char_traits@D@std@@V?$allocator@D@2@@std@@V?$allocator@V?$basic_string@DU?$char_traits@D@std@@V?$allocator@D@2@@std@@@2@@std@@@Z @1310 NONAME
?SetElementMatrix@BanBaseWidget@@QAEXVQMatrix@@@Z @1311 NONAME
?SetEnableCurrentPage@LiveWidget@@AAEX_N@Z @1312 NONAME
?SetEnabled@LiveTitleWidget@@QAEX_N00@Z @1313 NONAME
?SetFontParameters@TextElementHelper@@AAEX_N@Z @1314 NONAME
?SetHighlightElement@BanBaseWidget@@IAEXPAVElement@@@Z @1315 NONAME
?SetHtmlText@HtmlElementPainter@@QAEXAAVQString@@H@Z @1316 NONAME
?SetHtmlText@HtmlElementViewer@@QAEXAAVQString@@HVQColor@@@Z @1317 NONAME
?SetImage@CompressedImageBuffer@@UAEXVQPixmap@@@Z @1318 NONAME
?SetImage@ImageBuffer@@UAEXVQPixmap@@@Z @1319 NONAME
?SetImageElement@ImageStateElement@@QAEXPAVImageBaseElement@@@Z @1320 NONAME
?SetLabel@BanElement@@UAEXVQString@@@Z @1321 NONAME
?SetLabel@BanElementWithLabel@@UAEXVQString@@@Z @1322 NONAME
?SetLayer@BanBaseWidget@@QAEXH@Z @1323 NONAME
?SetLineColor@BanElement@@UAEXVQColor@@@Z @1324 NONAME
?SetLineColor@BanElementWithLabel@@UAEXVQColor@@@Z @1325 NONAME
?SetLineColor@Element@@UAEXVQColor@@@Z @1326 NONAME
?SetLineColor@HtmlTextElement@@UAEXVQColor@@@Z @1327 NONAME
?SetLineColor@TextElement@@UAEXVQColor@@@Z @1328 NONAME
?SetLineStyle@BanElement@@UAEXH@Z @1329 NONAME
?SetLineStyle@Element@@UAEXH@Z @1330 NONAME
?SetLineWidth@BanElement@@UAEXH@Z @1331 NONAME
?SetLineWidth@Element@@UAEXH@Z @1332 NONAME
?SetLineWidth@HtmlTextElement@@UAEXH@Z @1333 NONAME
?SetLineWidth@TextElement@@UAEXH@Z @1334 NONAME
?SetMatrix@Element@@UAEXVQMatrix@@@Z @1335 NONAME
?SetMiddleNumber@NumberButton@@QAEXH@Z @1336 NONAME
?SetMode@BanBaseWidget@@QAEXW4DrawMode@@@Z @1337 NONAME
?SetModifiedTriggered@BanBaseWidget@@QAEX_N@Z @1338 NONAME
?SetMsgPackData@BanBaseWidget@@UAEXAAVLokiBuffer@@@Z @1339 NONAME
?SetMsgPackData@KeWidget@@QAEXAAVLokiBuffer@@@Z @1340 NONAME
?SetMsgPackData@PlayerWidget@@UAEXAAVLokiBuffer@@@Z @1341 NONAME
?SetMsgPackData@TestBaseWidget@@UAEXAAVLokiBuffer@@@Z @1342 NONAME
?SetNumberRange@SelectNumberMenu@@QAEXHH@Z @1343 NONAME
?SetPainterStyle@BanBaseWidget@@IAEXAAVQPainter@@@Z @1344 NONAME
?SetPixmap@ElementLabelBorder@@IAEXAAVQPixmap@@_N@Z @1345 NONAME
?SetPlayed@AnimationAction@@QAEX_N@Z @1346 NONAME
?SetState@BanElement@@QAEXUState@1@@Z @1347 NONAME
?SetState@ImageBaseElement@@QAEXUState@1@@Z @1348 NONAME
?SetTartgetBanUuid@AnimationAction@@QAEXV?$basic_string@DU?$char_traits@D@std@@V?$allocator@D@2@@std@@@Z @1349 NONAME
?SetTartgetElementUuid@AnimationAction@@QAEXV?$basic_string@DU?$char_traits@D@std@@V?$allocator@D@2@@std@@@Z @1350 NONAME
?SetTime@AnimationAction@@QAEXH@Z @1351 NONAME
?SetTotalTime@PlayerTitleWidget@@QAEXH@Z @1352 NONAME
?SetWidthHeight@BanElement@@AAEXHH@Z @1353 NONAME
?SetWorldMatrix@BanBaseWidget@@QAEXVQMatrix@@@Z @1354 NONAME
?Show@ChineseMessageBox@@SAHABVQString@@0@Z @1355 NONAME
?Show@ChineseMessageBox@@SAHABVQString@@0W4MessageBoxButtons@1@@Z @1356 NONAME
?Show@ChineseMessageBox@@SAHABVQString@@0W4MessageBoxButtons@1@W4MessageBoxIcon@1@@Z @1357 NONAME
?Show@ChineseMessageBox@@SAHABVQString@@@Z @1358 NONAME
?ShowCurrentSlide@SlidePresenter@@QAEXXZ @1359 NONAME
?ShowModal@AddCorrectDialog@@QAEXAAV?$vector@V?$basic_string@DU?$char_traits@D@std@@V?$allocator@D@2@@std@@V?$allocator@V?$basic_string@DU?$char_traits@D@std@@V?$allocator@D@2@@std@@@2@@std@@0@Z @1360 NONAME
?ShowModal@BanBrowserDialog@@QAEXXZ @1361 NONAME
?ShowModal@BanScriptDepsDialog@@QAEXPAVBanScriptDeps@@PAVBanScriptWidget@@@Z @1362 NONAME
?ShowModal@CameraWindow@@QAEXXZ @1363 NONAME
?ShowModal@HeraMainWidget@@QAEXXZ @1364 NONAME
?ShowModal@HtmlElementEditor@@QAEXPAVHtmlTextElement@@@Z @1365 NONAME
?ShowModal@KePages@@QAEXAAV?$vector@PAVBanBaseWidget@@V?$allocator@PAVBanBaseWidget@@@std@@@std@@@Z @1366 NONAME
?ShowModal@ScreenshotWindow@@QAEXXZ @1367 NONAME
?ShowNetworkRetry@LiveWidget@@AAEXXZ @1368 NONAME
?ShowNotify@NotifyWindow@@QAEXVQString@@H@Z @1369 NONAME
?Start@KeTime@@QAEXXZ @1370 NONAME
?Stop@AnimationThread@@QAEX_N@Z @1371 NONAME
?TakeBoard@LokiClient@@QAEXXZ @1372 NONAME
?ToCurrentState@BanElement@@UAEXXZ @1373 NONAME
?ToCurrentState@BanStateElement@@UAEXXZ @1374 NONAME
?ToCurrentState@HtmlTextElement@@UAEXXZ @1375 NONAME
?ToCurrentState@ImageBaseElement@@UAEXXZ @1376 NONAME
?ToCurrentState@ImageStateElement@@UAEXXZ @1377 NONAME
?ToCurrentState@PathElement@@UAEXXZ @1378 NONAME
?ToCurrentState@TextElement@@UAEXXZ @1379 NONAME
?ToFixedPixmap@BanBaseWidget@@UAE?AVQPixmap@@HH_N@Z @1380 NONAME
?ToFullPixmap@BanBaseWidget@@QAE?AVQPixmap@@NN_N@Z @1381 NONAME
?ToInitState@BanElement@@UAEXXZ @1382 NONAME
?ToInitState@BanStateElement@@UAEXXZ @1383 NONAME
?ToInitState@HtmlTextElement@@UAEXXZ @1384 NONAME
?ToInitState@ImageBaseElement@@UAEXXZ @1385 NONAME
?ToInitState@ImageStateElement@@UAEXXZ @1386 NONAME
?ToInitState@PathElement@@UAEXXZ @1387 NONAME
?ToInitState@TextElement@@UAEXXZ @1388 NONAME
?ToPath@OrigialDrawElement@@AAE?AVQPainterPath@@ABV?$vector@VSPoint@@V?$allocator@VSPoint@@@std@@@std@@@Z @1389 NONAME
?ToPenMode@NumberButton@@QAEXXZ @1390 NONAME
?ToPixmap@BanBaseWidget@@UAE?AVQPixmap@@NN_N0@Z @1391 NONAME
?ToQPoint@SPoint@@QAE?AVQPoint@@XZ @1392 NONAME
?ToTextMode@NumberButton@@QAEXXZ @1393 NONAME
?UnCheck@ScCheckableButton@@QAEXXZ @1394 NONAME
?Update@LineColorAction@@QAEXVQColor@@@Z @1395 NONAME
?Update@LineStyleAction@@QAEXW4PenStyle@Qt@@@Z @1396 NONAME
?Update@LineWidthAction@@QAEXH@Z @1397 NONAME
?Update@NetworkShowAction@@QAEXHAAVLokiBuffer@@@Z @1398 NONAME
?Update@NetworkSwitchPageAction@@QAEXVQString@@AAVLokiBuffer@@@Z @1399 NONAME
?Update@SizeAction@@QAEXVQPoint@@HH@Z @1400 NONAME
?Update@TextChangedAction@@QAEXVQString@@H@Z @1401 NONAME
?UpdateDataFromMsgPack@BanBaseWidget@@UAEXXZ @1402 NONAME
?UpdateDataFromMsgPack@BanElement@@UAEXXZ @1403 NONAME
?UpdateDataFromMsgPack@BanScriptWidget@@UAEXXZ @1404 NONAME
?UpdateDataFromMsgPack@BanStateElement@@UAEXXZ @1405 NONAME
?UpdateDataFromMsgPack@CompressedImageElement@@UAEXXZ @1406 NONAME
?UpdateDataFromMsgPack@DrawElement@@UAEXXZ @1407 NONAME
?UpdateDataFromMsgPack@Element@@UAEXXZ @1408 NONAME
?UpdateDataFromMsgPack@EllipseElement@@UAEXXZ @1409 NONAME
?UpdateDataFromMsgPack@ImageElement@@UAEXXZ @1410 NONAME
?UpdateDataFromMsgPack@ImageStateElement@@UAEXXZ @1411 NONAME
?UpdateDataFromMsgPack@LineElement@@UAEXXZ @1412 NONAME
?UpdateDataFromMsgPack@OrigialDrawElement@@UAEXXZ @1413 NONAME
?UpdateDataFromMsgPack@PlayerWidget@@UAEXXZ @1414 NONAME
?UpdateDataFromMsgPack@RectElement@@UAEXXZ @1415 NONAME
?UpdateDataFromMsgPack@TestBanElement@@UAEXXZ @1416 NONAME
?UpdateDataFromMsgPack@TestBanElementWithLabel@@UAEXXZ @1417 NONAME
?UpdateDataFromMsgPack@TestBaseWidget@@UAEXXZ @1418 NONAME
?UpdateFilepath@BanBaseWidget@@UAEXVQString@@@Z @1419 NONAME
?UpdateFilepath@KeWidget@@UAEXVQString@@@Z @1420 NONAME
?UpdateFilepath@LiveWidget@@UAEXVQString@@@Z @1421 NONAME
?UpdateFilepath@PlayerWidget@@UAEXVQString@@@Z @1422 NONAME
?UpdateFontSize@HtmlTextElement@@QAEXH@Z @1423 NONAME
?UpdateFromBuffer@BanElement@@QAEXAAVLokiBuffer@@@Z @1424 NONAME
?UpdateImage@BanElementHelper@@EAEXXZ @1425 NONAME
?UpdatePixmap@HtmlTextElementHelper@@AAEXXZ @1426 NONAME
?UpdatePoints@DrawElement@@QAE_NAAV?$vector@VQPoint@@V?$allocator@VQPoint@@@std@@@std@@@Z @1427 NONAME
?UpdatePoints@EllipseElement@@QAE_NVQPoint@@0@Z @1428 NONAME
?UpdatePoints@LineElement@@QAE_NVQPoint@@0@Z @1429 NONAME
?UpdatePoints@OrigialDrawElement@@QAE_NAAV?$vector@VQPoint@@V?$allocator@VQPoint@@@std@@@std@@@Z @1430 NONAME
?UpdatePoints@RectElement@@QAE_NVQPoint@@0@Z @1431 NONAME
?UpdateProgressPercent@PlayerTitleWidget@@AAEXN@Z @1432 NONAME
?UpdateSize@BanElement@@UAEXVQPoint@@HH@Z @1433 NONAME
?UpdateSize@BanStateElement@@UAEXVQPoint@@HH@Z @1434 NONAME
?UpdateSize@Element@@UAEXVQPoint@@HH@Z @1435 NONAME
?UpdateSize@HtmlTextElement@@UAEXVQPoint@@HH@Z @1436 NONAME
?UpdateSize@ImageBaseElement@@UAEXVQPoint@@HH@Z @1437 NONAME
?UpdateSize@ImageStateElement@@UAEXVQPoint@@HH@Z @1438 NONAME
?UpdateSize@TextElement@@UAEXVQPoint@@HH@Z @1439 NONAME
?UpdateSize@TextElementHelper@@AAEXXZ @1440 NONAME
?UpdateText@HtmlTextElement@@QAEXAAVQString@@@Z @1441 NONAME
?changeLineColor@BanScriptRuntime@@QAE?AVQScriptValue@@VQString@@@Z @1442 NONAME
?changeLineColorFunction@BanScriptRuntime@@CA?AVQScriptValue@@PAVQScriptContext@@PAVQScriptEngine@@PAX@Z @1443 NONAME
?changeLineStyle@BanScriptRuntime@@QAE?AVQScriptValue@@VQString@@@Z @1444 NONAME
?changeLineStyleFunction@BanScriptRuntime@@CA?AVQScriptValue@@PAVQScriptContext@@PAVQScriptEngine@@PAX@Z @1445 NONAME
?changeLineWidth@BanScriptRuntime@@QAE?AVQScriptValue@@H@Z @1446 NONAME
?changeLineWidthFunction@BanScriptRuntime@@CA?AVQScriptValue@@PAVQScriptContext@@PAVQScriptEngine@@PAX@Z @1447 NONAME
?clearAll@BanScriptWidget@@AAEXXZ @1448 NONAME
?closeEvent@BanScriptEditor@@EAEXPAVQCloseEvent@@@Z @1449 NONAME
?closeEvent@CameraWindow@@EAEXPAVQCloseEvent@@@Z @1450 NONAME
?closeEvent@HeraMainWidget@@EAEXPAVQCloseEvent@@@Z @1451 NONAME
?closeEvent@ScreenshotWindow@@EAEXPAVQCloseEvent@@@Z @1452 NONAME
?contextMenuEvent@BanBaseWidget@@MAEXPAVQContextMenuEvent@@@Z @1453 NONAME
?contextMenuEvent@JSEdit@@MAEXPAVQContextMenuEvent@@@Z @1454 NONAME
?contextMenuEvent@TextElementHelper@@UAEXPAVQContextMenuEvent@@@Z @1455 NONAME
?d_func@JSEdit@@AAEPAVJSEditPrivate@@XZ @1456 NONAME
?d_func@JSEdit@@ABEPBVJSEditPrivate@@XZ @1457 NONAME
?debugFunction@BanScriptRuntime@@CA?AVQScriptValue@@PAVQScriptContext@@PAVQScriptEngine@@PAX@Z @1458 NONAME
?disconnect_all@?$has_slots@Vsingle_threaded@sigslot_liangshi@@@sigslot_liangshi@@QAEXXZ @1459 NONAME
?dragEnterEvent@BanBaseWidget@@MAEXPAVQDragEnterEvent@@@Z @1460 NONAME
?dragEnterEvent@HeraMainWidget@@EAEXPAVQDragEnterEvent@@@Z @1461 NONAME
?draw@BanElementScriptValue@@QAE?AVQScriptValue@@HH@Z @1462 NONAME
?draw@ImageElementScriptValue@@QAE?AVQScriptValue@@HH@Z @1463 NONAME
?draw@TextElementScriptValue@@QAE?AVQScriptValue@@HH@Z @1464 NONAME
?drawBanFunction@BanScriptRuntime@@CA?AVQScriptValue@@PAVQScriptContext@@PAVQScriptEngine@@PAX@Z @1465 NONAME
?drawEllipse@BanScriptRuntime@@QAE?AVQScriptValue@@HHHH@Z @1466 NONAME
?drawEllipse@BanScriptWidget@@AAEXHHHH@Z @1467 NONAME
?drawEllipseFunction@BanScriptRuntime@@CA?AVQScriptValue@@PAVQScriptContext@@PAVQScriptEngine@@PAX@Z @1468 NONAME
?drawFunction@BanElementScriptValue@@CA?AVQScriptValue@@PAVQScriptContext@@PAVQScriptEngine@@PAX@Z @1469 NONAME
?drawFunction@ImageElementScriptValue@@CA?AVQScriptValue@@PAVQScriptContext@@PAVQScriptEngine@@PAX@Z @1470 NONAME
?drawFunction@TextElementScriptValue@@CA?AVQScriptValue@@PAVQScriptContext@@PAVQScriptEngine@@PAX@Z @1471 NONAME
?drawImageFunction@BanScriptRuntime@@CA?AVQScriptValue@@PAVQScriptContext@@PAVQScriptEngine@@PAX@Z @1472 NONAME
?drawLine@BanScriptRuntime@@QAE?AVQScriptValue@@HHHH@Z @1473 NONAME
?drawLine@BanScriptWidget@@AAEXHHHH@Z @1474 NONAME
?drawLineFunction@BanScriptRuntime@@CA?AVQScriptValue@@PAVQScriptContext@@PAVQScriptEngine@@PAX@Z @1475 NONAME
?drawPath@BanScriptRuntime@@QAE?AVQScriptValue@@V?$QList@VQVariant@@@@@Z @1476 NONAME
?drawPath@BanScriptWidget@@AAEXAAV?$vector@VQPoint@@V?$allocator@VQPoint@@@std@@@std@@@Z @1477 NONAME
?drawPathFunction@BanScriptRuntime@@CA?AVQScriptValue@@PAVQScriptContext@@PAVQScriptEngine@@PAX@Z @1478 NONAME
?drawRect@BanScriptRuntime@@QAE?AVQScriptValue@@HHHH@Z @1479 NONAME
?drawRect@BanScriptWidget@@AAEXHHHH@Z @1480 NONAME
?drawRectFunction@BanScriptRuntime@@CA?AVQScriptValue@@PAVQScriptContext@@PAVQScriptEngine@@PAX@Z @1481 NONAME
?drawText@BanScriptRuntime@@QAE?AVQScriptValue@@HHVQString@@H@Z @1482 NONAME
?drawText@BanScriptWidget@@AAEXHHAAVQString@@H@Z @1483 NONAME
?drawTextFunction@BanScriptRuntime@@CA?AVQScriptValue@@PAVQScriptContext@@PAVQScriptEngine@@PAX@Z @1484 NONAME
?dropEvent@BanBaseWidget@@MAEXPAVQDropEvent@@@Z @1485 NONAME
?dropEvent@HeraMainWidget@@EAEXPAVQDropEvent@@@Z @1486 NONAME
?enterEvent@CheckableImageButton@@MAEXPAVQEvent@@@Z @1487 NONAME
?enterEvent@ElementLabel@@EAEXPAVQEvent@@@Z @1488 NONAME
?enterEvent@ElementLabelBorder@@UAEXPAVQEvent@@@Z @1489 NONAME
?enterEvent@FourStateImageButton@@MAEXPAVQEvent@@@Z @1490 NONAME
?enterEvent@OneImageButton@@MAEXPAVQEvent@@@Z @1491 NONAME
?enterEvent@TwoStateImageButton@@MAEXPAVQEvent@@@Z @1492 NONAME
?eventFilter@BanBaseWidget@@MAE_NPAVQObject@@PAVQEvent@@@Z @1493 NONAME
?getHeightFunction@BanElementScriptValue@@CA?AVQScriptValue@@PAVQScriptContext@@PAVQScriptEngine@@PAX@Z @1494 NONAME
?getHeightFunction@ImageElementScriptValue@@CA?AVQScriptValue@@PAVQScriptContext@@PAVQScriptEngine@@PAX@Z @1495 NONAME
?getHeightFunction@TextElementScriptValue@@CA?AVQScriptValue@@PAVQScriptContext@@PAVQScriptEngine@@PAX@Z @1496 NONAME
?getWidthFunction@BanElementScriptValue@@CA?AVQScriptValue@@PAVQScriptContext@@PAVQScriptEngine@@PAX@Z @1497 NONAME
?getWidthFunction@ImageElementScriptValue@@CA?AVQScriptValue@@PAVQScriptContext@@PAVQScriptEngine@@PAX@Z @1498 NONAME
?getWidthFunction@TextElementScriptValue@@CA?AVQScriptValue@@PAVQScriptContext@@PAVQScriptEngine@@PAX@Z @1499 NONAME
?hideEvent@BanElementHelper@@EAEXPAVQHideEvent@@@Z @1500 NONAME
?hideEvent@ElementLabelBorder@@UAEXPAVQHideEvent@@@Z @1501 NONAME
?hideEvent@HtmlTextElementHelper@@UAEXPAVQHideEvent@@@Z @1502 NONAME
?hideEvent@ImageElementHelper@@EAEXPAVQHideEvent@@@Z @1503 NONAME
?hideEvent@TextElementHelper@@UAEXPAVQHideEvent@@@Z @1504 NONAME
?includeFunction@BanScriptRuntime@@CA?AVQScriptValue@@PAVQScriptContext@@PAVQScriptEngine@@PAX@Z @1505 NONAME
?instance@?$QtSingleton@VAddCorrectDialog@@@@0V?$QAtomicPointer@VAddCorrectDialog@@@@A @1506 NONAME
?instance@?$QtSingleton@VBanBrowserDialog@@@@0V?$QAtomicPointer@VBanBrowserDialog@@@@A @1507 NONAME
?instance@?$QtSingleton@VBanScriptDepsDialog@@@@0V?$QAtomicPointer@VBanScriptDepsDialog@@@@A @1508 NONAME
?instance@?$QtSingleton@VCameraWindow@@@@0V?$QAtomicPointer@VCameraWindow@@@@A @1509 NONAME
?instance@?$QtSingleton@VHackManager@@@@0V?$QAtomicPointer@VHackManager@@@@A @1510 NONAME
?instance@?$QtSingleton@VHeraDocManager@@@@0V?$QAtomicPointer@VHeraDocManager@@@@A @1511 NONAME
?instance@?$QtSingleton@VHtmlElementEditor@@@@0V?$QAtomicPointer@VHtmlElementEditor@@@@A @1512 NONAME
?instance@?$QtSingleton@VKePages@@@@0V?$QAtomicPointer@VKePages@@@@A @1513 NONAME
?instance@?$QtSingleton@VNotifyWindow@@@@0V?$QAtomicPointer@VNotifyWindow@@@@A @1514 NONAME
?instance@?$QtSingleton@VScreenshotWindow@@@@0V?$QAtomicPointer@VScreenshotWindow@@@@A @1515 NONAME
?isLineNumbersVisible@JSEdit@@QBE_NXZ @1516 NONAME
?isTextWrapEnabled@JSEdit@@QBE_NXZ @1517 NONAME
?keyPressEvent@BanBaseWidget@@MAEXPAVQKeyEvent@@@Z @1518 NONAME
?keyPressEvent@BanCategoryList@@EAEXPAVQKeyEvent@@@Z @1519 NONAME
?keyPressEvent@HeraMainWidget@@EAEXPAVQKeyEvent@@@Z @1520 NONAME
?keyPressEvent@PlayerWidget@@UAEXPAVQKeyEvent@@@Z @1521 NONAME
?keyPressEvent@ScreenshotWindow@@EAEXPAVQKeyEvent@@@Z @1522 NONAME
?keyPressEvent@SlidePresenter@@EAEXPAVQKeyEvent@@@Z @1523 NONAME
?keyPressEvent@TextElementHelper@@UAEXPAVQKeyEvent@@@Z @1524 NONAME
?keyReleaseEvent@BanBaseWidget@@MAEXPAVQKeyEvent@@@Z @1525 NONAME
?leaveEvent@CheckableImageButton@@MAEXPAVQEvent@@@Z @1526 NONAME
?leaveEvent@ElementLabel@@EAEXPAVQEvent@@@Z @1527 NONAME
?leaveEvent@ElementLabelBorder@@UAEXPAVQEvent@@@Z @1528 NONAME
?leaveEvent@FourStateImageButton@@MAEXPAVQEvent@@@Z @1529 NONAME
?leaveEvent@OneImageButton@@MAEXPAVQEvent@@@Z @1530 NONAME
?leaveEvent@TwoStateImageButton@@MAEXPAVQEvent@@@Z @1531 NONAME
?loadBan@BanScriptRuntime@@QAE?AVQScriptValue@@VQString@@@Z @1532 NONAME
?loadBanFunction@BanScriptRuntime@@CA?AVQScriptValue@@PAVQScriptContext@@PAVQScriptEngine@@PAX@Z @1533 NONAME
?loadImage@BanScriptRuntime@@QAE?AVQScriptValue@@VQString@@@Z @1534 NONAME
?loadImageFunction@BanScriptRuntime@@CA?AVQScriptValue@@PAVQScriptContext@@PAVQScriptEngine@@PAX@Z @1535 NONAME
?loadText@BanScriptRuntime@@QAE?AVQScriptValue@@VQString@@@Z @1536 NONAME
?loadTextFunction@BanScriptRuntime@@CA?AVQScriptValue@@PAVQScriptContext@@PAVQScriptEngine@@PAX@Z @1537 NONAME
?mark@JSEdit@@QAEXABVQString@@W4CaseSensitivity@Qt@@@Z @1538 NONAME
?measureText@BanScriptRuntime@@QAE?AVQScriptValue@@VQString@@H@Z @1539 NONAME
?measureTextFunction@BanScriptRuntime@@CA?AVQScriptValue@@PAVQScriptContext@@PAVQScriptEngine@@PAX@Z @1540 NONAME
?metaObject@AddCorrectDialog@@UBEPBUQMetaObject@@XZ @1541 NONAME
?metaObject@AnimationThread@@UBEPBUQMetaObject@@XZ @1542 NONAME
?metaObject@AudioVolumeIndicator@@UBEPBUQMetaObject@@XZ @1543 NONAME
?metaObject@BanBaseWidget@@UBEPBUQMetaObject@@XZ @1544 NONAME
?metaObject@BanBrowserDialog@@UBEPBUQMetaObject@@XZ @1545 NONAME
?metaObject@BanCategoryList@@UBEPBUQMetaObject@@XZ @1546 NONAME
?metaObject@BanElementHelper@@UBEPBUQMetaObject@@XZ @1547 NONAME
?metaObject@BanElementScriptValue@@UBEPBUQMetaObject@@XZ @1548 NONAME
?metaObject@BanList@@UBEPBUQMetaObject@@XZ @1549 NONAME
?metaObject@BanScriptDepsDialog@@UBEPBUQMetaObject@@XZ @1550 NONAME
?metaObject@BanScriptEditor@@UBEPBUQMetaObject@@XZ @1551 NONAME
?metaObject@BanScriptRuntime@@UBEPBUQMetaObject@@XZ @1552 NONAME
?metaObject@BanScriptWidget@@UBEPBUQMetaObject@@XZ @1553 NONAME
?metaObject@BanTitleWidget@@UBEPBUQMetaObject@@XZ @1554 NONAME
?metaObject@CameraWindow@@UBEPBUQMetaObject@@XZ @1555 NONAME
?metaObject@CheckableImageButton@@UBEPBUQMetaObject@@XZ @1556 NONAME
?metaObject@ColorButton@@UBEPBUQMetaObject@@XZ @1557 NONAME
?metaObject@DrawingToolsTitleWidget@@UBEPBUQMetaObject@@XZ @1558 NONAME
?metaObject@ElementLabel@@UBEPBUQMetaObject@@XZ @1559 NONAME
?metaObject@ElementLabelBorder@@UBEPBUQMetaObject@@XZ @1560 NONAME
?metaObject@ElementResizableTitlebar@@UBEPBUQMetaObject@@XZ @1561 NONAME
?metaObject@FileTitleWidget@@UBEPBUQMetaObject@@XZ @1562 NONAME
?metaObject@FourStateImageButton@@UBEPBUQMetaObject@@XZ @1563 NONAME
?metaObject@HeraDocManager@@UBEPBUQMetaObject@@XZ @1564 NONAME
?metaObject@HeraMainWidget@@UBEPBUQMetaObject@@XZ @1565 NONAME
?metaObject@HtmlElementEditor@@UBEPBUQMetaObject@@XZ @1566 NONAME
?metaObject@HtmlElementViewer@@UBEPBUQMetaObject@@XZ @1567 NONAME
?metaObject@HtmlTextElementHelper@@UBEPBUQMetaObject@@XZ @1568 NONAME
?metaObject@ImageElementHelper@@UBEPBUQMetaObject@@XZ @1569 NONAME
?metaObject@JSEdit@@UBEPBUQMetaObject@@XZ @1570 NONAME
?metaObject@KePages@@UBEPBUQMetaObject@@XZ @1571 NONAME
?metaObject@KeTime@@UBEPBUQMetaObject@@XZ @1572 NONAME
?metaObject@KeTitleWidget@@UBEPBUQMetaObject@@XZ @1573 NONAME
?metaObject@KeWidget@@UBEPBUQMetaObject@@XZ @1574 NONAME
?metaObject@LiveTitleWidget@@UBEPBUQMetaObject@@XZ @1575 NONAME
?metaObject@LiveWidget@@UBEPBUQMetaObject@@XZ @1576 NONAME
?metaObject@LokiClient@@UBEPBUQMetaObject@@XZ @1577 NONAME
?metaObject@NotifyWindow@@UBEPBUQMetaObject@@XZ @1578 NONAME
?metaObject@NumberButton@@UBEPBUQMetaObject@@XZ @1579 NONAME
?metaObject@OneImageButton@@UBEPBUQMetaObject@@XZ @1580 NONAME
?metaObject@PlayerPage@@UBEPBUQMetaObject@@XZ @1581 NONAME
?metaObject@PlayerProgressBar@@UBEPBUQMetaObject@@XZ @1582 NONAME
?metaObject@PlayerTitleWidget@@UBEPBUQMetaObject@@XZ @1583 NONAME
?metaObject@PlayerWidget@@UBEPBUQMetaObject@@XZ @1584 NONAME
?metaObject@ScCheckableButton@@UBEPBUQMetaObject@@XZ @1585 NONAME
?metaObject@ScreenshotWindow@@UBEPBUQMetaObject@@XZ @1586 NONAME
?metaObject@ScriptTitleWidget@@UBEPBUQMetaObject@@XZ @1587 NONAME
?metaObject@SelectColorMenu@@UBEPBUQMetaObject@@XZ @1588 NONAME
?metaObject@SelectNumberMenu@@UBEPBUQMetaObject@@XZ @1589 NONAME
?metaObject@SlidePresenter@@UBEPBUQMetaObject@@XZ @1590 NONAME
?metaObject@SysTitleWidget@@UBEPBUQMetaObject@@XZ @1591 NONAME
?metaObject@TestBaseWidget@@UBEPBUQMetaObject@@XZ @1592 NONAME
?metaObject@TestTitleWidget@@UBEPBUQMetaObject@@XZ @1593 NONAME
?metaObject@TextElementHelper@@UBEPBUQMetaObject@@XZ @1594 NONAME
?metaObject@TitleButton@@UBEPBUQMetaObject@@XZ @1595 NONAME
?metaObject@TitleCheckBox@@UBEPBUQMetaObject@@XZ @1596 NONAME
?metaObject@TitleComboBox@@UBEPBUQMetaObject@@XZ @1597 NONAME
?metaObject@TitleWidget@@UBEPBUQMetaObject@@XZ @1598 NONAME
?metaObject@TwoStateImageButton@@UBEPBUQMetaObject@@XZ @1599 NONAME
?mouseDoubleClickEvent@BanBaseWidget@@MAEXPAVQMouseEvent@@@Z @1600 NONAME
?mouseDoubleClickEvent@PlayerTitleWidget@@EAEXPAVQMouseEvent@@@Z @1601 NONAME
?mouseDoubleClickEvent@TitleWidget@@MAEXPAVQMouseEvent@@@Z @1602 NONAME
?mouseMoveEvent@BanBaseWidget@@MAEXPAVQMouseEvent@@@Z @1603 NONAME
?mouseMoveEvent@ElementLabel@@EAEXPAVQMouseEvent@@@Z @1604 NONAME
?mouseMoveEvent@ElementLabelBorder@@UAEXPAVQMouseEvent@@@Z @1605 NONAME
?mouseMoveEvent@PlayerWidget@@UAEXPAVQMouseEvent@@@Z @1606 NONAME
?mouseMoveEvent@ScreenshotWindow@@EAEXPAVQMouseEvent@@@Z @1607 NONAME
?mouseMoveEvent@TextElementHelper@@UAEXPAVQMouseEvent@@@Z @1608 NONAME
?mouseMoveEvent@TitleWidget@@MAEXPAVQMouseEvent@@@Z @1609 NONAME
?mousePressEvent@BanBaseWidget@@MAEXPAVQMouseEvent@@@Z @1610 NONAME
?mousePressEvent@CheckableImageButton@@MAEXPAVQMouseEvent@@@Z @1611 NONAME
?mousePressEvent@ElementLabel@@EAEXPAVQMouseEvent@@@Z @1612 NONAME
?mousePressEvent@ElementLabelBorder@@UAEXPAVQMouseEvent@@@Z @1613 NONAME
?mousePressEvent@FourStateImageButton@@MAEXPAVQMouseEvent@@@Z @1614 NONAME
?mousePressEvent@OneImageButton@@MAEXPAVQMouseEvent@@@Z @1615 NONAME
?mousePressEvent@PlayerProgressBar@@EAEXPAVQMouseEvent@@@Z @1616 NONAME
?mousePressEvent@PlayerWidget@@UAEXPAVQMouseEvent@@@Z @1617 NONAME
?mousePressEvent@ScreenshotWindow@@EAEXPAVQMouseEvent@@@Z @1618 NONAME
?mousePressEvent@SlidePresenter@@EAEXPAVQMouseEvent@@@Z @1619 NONAME
?mousePressEvent@TextElementHelper@@UAEXPAVQMouseEvent@@@Z @1620 NONAME
?mousePressEvent@TitleWidget@@MAEXPAVQMouseEvent@@@Z @1621 NONAME
?mousePressEvent@TwoStateImageButton@@MAEXPAVQMouseEvent@@@Z @1622 NONAME
?mouseReleaseEvent@BanBaseWidget@@MAEXPAVQMouseEvent@@@Z @1623 NONAME
?mouseReleaseEvent@ElementLabel@@EAEXPAVQMouseEvent@@@Z @1624 NONAME
?mouseReleaseEvent@ElementLabelBorder@@UAEXPAVQMouseEvent@@@Z @1625 NONAME
?mouseReleaseEvent@FourStateImageButton@@MAEXPAVQMouseEvent@@@Z @1626 NONAME
?mouseReleaseEvent@PlayerWidget@@UAEXPAVQMouseEvent@@@Z @1627 NONAME
?mouseReleaseEvent@ScreenshotWindow@@EAEXPAVQMouseEvent@@@Z @1628 NONAME
?mouseReleaseEvent@TextElementHelper@@UAEXPAVQMouseEvent@@@Z @1629 NONAME
?mouseReleaseEvent@TitleWidget@@MAEXPAVQMouseEvent@@@Z @1630 NONAME
?moveEvent@ElementLabelBorder@@UAEXPAVQMoveEvent@@@Z @1631 NONAME
?moveEvent@TextElementHelper@@UAEXPAVQMoveEvent@@@Z @1632 NONAME
?msgpack_unpack@BanBaseWidget@@QAEXUobject@msgpack@@@Z @1633 NONAME
?msgpack_unpack@BanElement@@QAEXUobject@msgpack@@@Z @1634 NONAME
?msgpack_unpack@BanElementWithLabel@@QAEXUobject@msgpack@@@Z @1635 NONAME
?msgpack_unpack@BanStateElement@@QAEXUobject@msgpack@@@Z @1636 NONAME
?msgpack_unpack@BottomMostAction@@QAEXUobject@msgpack@@@Z @1637 NONAME
?msgpack_unpack@CompressedImageBuffer@@QAEXUobject@msgpack@@@Z @1638 NONAME
?msgpack_unpack@CompressedImageElement@@QAEXUobject@msgpack@@@Z @1639 NONAME
?msgpack_unpack@DrawElement@@QAEXUobject@msgpack@@@Z @1640 NONAME
?msgpack_unpack@EllipseElement@@QAEXUobject@msgpack@@@Z @1641 NONAME
?msgpack_unpack@HideAction@@QAEXUobject@msgpack@@@Z @1642 NONAME
?msgpack_unpack@HtmlTextElement@@QAEXUobject@msgpack@@@Z @1643 NONAME
?msgpack_unpack@ImageBuffer@@QAEXUobject@msgpack@@@Z @1644 NONAME
?msgpack_unpack@ImageElement@@QAEXUobject@msgpack@@@Z @1645 NONAME
?msgpack_unpack@ImageStateElement@@QAEXUobject@msgpack@@@Z @1646 NONAME
?msgpack_unpack@KeWidget@@QAEXUobject@msgpack@@@Z @1647 NONAME
?msgpack_unpack@LineColorAction@@QAEXUobject@msgpack@@@Z @1648 NONAME
?msgpack_unpack@LineElement@@QAEXUobject@msgpack@@@Z @1649 NONAME
?msgpack_unpack@LineStyleAction@@QAEXUobject@msgpack@@@Z @1650 NONAME
?msgpack_unpack@LineWidthAction@@QAEXUobject@msgpack@@@Z @1651 NONAME
?msgpack_unpack@MarkdownWidget@@QAEXUobject@msgpack@@@Z @1652 NONAME
?msgpack_unpack@MediaElement@@QAEXUobject@msgpack@@@Z @1653 NONAME
?msgpack_unpack@NetworkShowAction@@QAEXUobject@msgpack@@@Z @1654 NONAME
?msgpack_unpack@NetworkSwitchPageAction@@QAEXUobject@msgpack@@@Z @1655 NONAME
?msgpack_unpack@OrigialDrawElement@@QAEXUobject@msgpack@@@Z @1656 NONAME
?msgpack_unpack@PlayerWidget@@QAEXUobject@msgpack@@@Z @1657 NONAME
?msgpack_unpack@RectElement@@QAEXUobject@msgpack@@@Z @1658 NONAME
?msgpack_unpack@SPoint@@QAEXUobject@msgpack@@@Z @1659 NONAME
?msgpack_unpack@ShowAction@@QAEXUobject@msgpack@@@Z @1660 NONAME
?msgpack_unpack@SizeAction@@QAEXUobject@msgpack@@@Z @1661 NONAME
?msgpack_unpack@SwitchPageAction@@QAEXUobject@msgpack@@@Z @1662 NONAME
?msgpack_unpack@TestBanElement@@QAEXUobject@msgpack@@@Z @1663 NONAME
?msgpack_unpack@TestBanElementWithLabel@@QAEXUobject@msgpack@@@Z @1664 NONAME
?msgpack_unpack@TestBaseWidget@@QAEXUobject@msgpack@@@Z @1665 NONAME
?msgpack_unpack@TextChangedAction@@QAEXUobject@msgpack@@@Z @1666 NONAME
?msgpack_unpack@TextElement@@QAEXUobject@msgpack@@@Z @1667 NONAME
?msgpack_unpack@TopMostAction@@QAEXUobject@msgpack@@@Z @1668 NONAME
?needSaveScript@BanScriptRuntime@@QAE?AVQScriptValue@@_N@Z @1669 NONAME
?needSaveScriptFunction@BanScriptRuntime@@CA?AVQScriptValue@@PAVQScriptContext@@PAVQScriptEngine@@PAX@Z @1670 NONAME
?paintEvent@BanBaseWidget@@MAEXPAVQPaintEvent@@@Z @1671 NONAME
?paintEvent@CheckableImageButton@@MAEXPAVQPaintEvent@@@Z @1672 NONAME
?paintEvent@ElementLabelBorder@@UAEXPAVQPaintEvent@@@Z @1673 NONAME
?paintEvent@FourStateImageButton@@MAEXPAVQPaintEvent@@@Z @1674 NONAME
?paintEvent@HtmlElementViewer@@UAEXPAVQPaintEvent@@@Z @1675 NONAME
?paintEvent@OneImageButton@@MAEXPAVQPaintEvent@@@Z @1676 NONAME
?paintEvent@PlayerPage@@MAEXPAVQPaintEvent@@@Z @1677 NONAME
?paintEvent@ScreenshotWindow@@EAEXPAVQPaintEvent@@@Z @1678 NONAME
?paintEvent@TwoStateImageButton@@MAEXPAVQPaintEvent@@@Z @1679 NONAME
?qt_metacall@AddCorrectDialog@@UAEHW4Call@QMetaObject@@HPAPAX@Z @1680 NONAME
?qt_metacall@AnimationThread@@UAEHW4Call@QMetaObject@@HPAPAX@Z @1681 NONAME
?qt_metacall@AudioVolumeIndicator@@UAEHW4Call@QMetaObject@@HPAPAX@Z @1682 NONAME
?qt_metacall@BanBaseWidget@@UAEHW4Call@QMetaObject@@HPAPAX@Z @1683 NONAME
?qt_metacall@BanBrowserDialog@@UAEHW4Call@QMetaObject@@HPAPAX@Z @1684 NONAME
?qt_metacall@BanCategoryList@@UAEHW4Call@QMetaObject@@HPAPAX@Z @1685 NONAME
?qt_metacall@BanElementHelper@@UAEHW4Call@QMetaObject@@HPAPAX@Z @1686 NONAME
?qt_metacall@BanElementScriptValue@@UAEHW4Call@QMetaObject@@HPAPAX@Z @1687 NONAME
?qt_metacall@BanList@@UAEHW4Call@QMetaObject@@HPAPAX@Z @1688 NONAME
?qt_metacall@BanScriptDepsDialog@@UAEHW4Call@QMetaObject@@HPAPAX@Z @1689 NONAME
?qt_metacall@BanScriptEditor@@UAEHW4Call@QMetaObject@@HPAPAX@Z @1690 NONAME
?qt_metacall@BanScriptRuntime@@UAEHW4Call@QMetaObject@@HPAPAX@Z @1691 NONAME
?qt_metacall@BanScriptWidget@@UAEHW4Call@QMetaObject@@HPAPAX@Z @1692 NONAME
?qt_metacall@BanTitleWidget@@UAEHW4Call@QMetaObject@@HPAPAX@Z @1693 NONAME
?qt_metacall@CameraWindow@@UAEHW4Call@QMetaObject@@HPAPAX@Z @1694 NONAME
?qt_metacall@CheckableImageButton@@UAEHW4Call@QMetaObject@@HPAPAX@Z @1695 NONAME
?qt_metacall@ColorButton@@UAEHW4Call@QMetaObject@@HPAPAX@Z @1696 NONAME
?qt_metacall@DrawingToolsTitleWidget@@UAEHW4Call@QMetaObject@@HPAPAX@Z @1697 NONAME
?qt_metacall@ElementLabel@@UAEHW4Call@QMetaObject@@HPAPAX@Z @1698 NONAME
?qt_metacall@ElementLabelBorder@@UAEHW4Call@QMetaObject@@HPAPAX@Z @1699 NONAME
?qt_metacall@ElementResizableTitlebar@@UAEHW4Call@QMetaObject@@HPAPAX@Z @1700 NONAME
?qt_metacall@FileTitleWidget@@UAEHW4Call@QMetaObject@@HPAPAX@Z @1701 NONAME
?qt_metacall@FourStateImageButton@@UAEHW4Call@QMetaObject@@HPAPAX@Z @1702 NONAME
?qt_metacall@HeraDocManager@@UAEHW4Call@QMetaObject@@HPAPAX@Z @1703 NONAME
?qt_metacall@HeraMainWidget@@UAEHW4Call@QMetaObject@@HPAPAX@Z @1704 NONAME
?qt_metacall@HtmlElementEditor@@UAEHW4Call@QMetaObject@@HPAPAX@Z @1705 NONAME
?qt_metacall@HtmlElementViewer@@UAEHW4Call@QMetaObject@@HPAPAX@Z @1706 NONAME
?qt_metacall@HtmlTextElementHelper@@UAEHW4Call@QMetaObject@@HPAPAX@Z @1707 NONAME
?qt_metacall@ImageElementHelper@@UAEHW4Call@QMetaObject@@HPAPAX@Z @1708 NONAME
?qt_metacall@JSEdit@@UAEHW4Call@QMetaObject@@HPAPAX@Z @1709 NONAME
?qt_metacall@KePages@@UAEHW4Call@QMetaObject@@HPAPAX@Z @1710 NONAME
?qt_metacall@KeTime@@UAEHW4Call@QMetaObject@@HPAPAX@Z @1711 NONAME
?qt_metacall@KeTitleWidget@@UAEHW4Call@QMetaObject@@HPAPAX@Z @1712 NONAME
?qt_metacall@KeWidget@@UAEHW4Call@QMetaObject@@HPAPAX@Z @1713 NONAME
?qt_metacall@LiveTitleWidget@@UAEHW4Call@QMetaObject@@HPAPAX@Z @1714 NONAME
?qt_metacall@LiveWidget@@UAEHW4Call@QMetaObject@@HPAPAX@Z @1715 NONAME
?qt_metacall@LokiClient@@UAEHW4Call@QMetaObject@@HPAPAX@Z @1716 NONAME
?qt_metacall@NotifyWindow@@UAEHW4Call@QMetaObject@@HPAPAX@Z @1717 NONAME
?qt_metacall@NumberButton@@UAEHW4Call@QMetaObject@@HPAPAX@Z @1718 NONAME
?qt_metacall@OneImageButton@@UAEHW4Call@QMetaObject@@HPAPAX@Z @1719 NONAME
?qt_metacall@PlayerPage@@UAEHW4Call@QMetaObject@@HPAPAX@Z @1720 NONAME
?qt_metacall@PlayerProgressBar@@UAEHW4Call@QMetaObject@@HPAPAX@Z @1721 NONAME
?qt_metacall@PlayerTitleWidget@@UAEHW4Call@QMetaObject@@HPAPAX@Z @1722 NONAME
?qt_metacall@PlayerWidget@@UAEHW4Call@QMetaObject@@HPAPAX@Z @1723 NONAME
?qt_metacall@ScCheckableButton@@UAEHW4Call@QMetaObject@@HPAPAX@Z @1724 NONAME
?qt_metacall@ScreenshotWindow@@UAEHW4Call@QMetaObject@@HPAPAX@Z @1725 NONAME
?qt_metacall@ScriptTitleWidget@@UAEHW4Call@QMetaObject@@HPAPAX@Z @1726 NONAME
?qt_metacall@SelectColorMenu@@UAEHW4Call@QMetaObject@@HPAPAX@Z @1727 NONAME
?qt_metacall@SelectNumberMenu@@UAEHW4Call@QMetaObject@@HPAPAX@Z @1728 NONAME
?qt_metacall@SlidePresenter@@UAEHW4Call@QMetaObject@@HPAPAX@Z @1729 NONAME
?qt_metacall@SysTitleWidget@@UAEHW4Call@QMetaObject@@HPAPAX@Z @1730 NONAME
?qt_metacall@TestBaseWidget@@UAEHW4Call@QMetaObject@@HPAPAX@Z @1731 NONAME
?qt_metacall@TestTitleWidget@@UAEHW4Call@QMetaObject@@HPAPAX@Z @1732 NONAME
?qt_metacall@TextElementHelper@@UAEHW4Call@QMetaObject@@HPAPAX@Z @1733 NONAME
?qt_metacall@TitleButton@@UAEHW4Call@QMetaObject@@HPAPAX@Z @1734 NONAME
?qt_metacall@TitleCheckBox@@UAEHW4Call@QMetaObject@@HPAPAX@Z @1735 NONAME
?qt_metacall@TitleComboBox@@UAEHW4Call@QMetaObject@@HPAPAX@Z @1736 NONAME
?qt_metacall@TitleWidget@@UAEHW4Call@QMetaObject@@HPAPAX@Z @1737 NONAME
?qt_metacall@TwoStateImageButton@@UAEHW4Call@QMetaObject@@HPAPAX@Z @1738 NONAME
?qt_metacast@AddCorrectDialog@@UAEPAXPBD@Z @1739 NONAME
?qt_metacast@AnimationThread@@UAEPAXPBD@Z @1740 NONAME
?qt_metacast@AudioVolumeIndicator@@UAEPAXPBD@Z @1741 NONAME
?qt_metacast@BanBaseWidget@@UAEPAXPBD@Z @1742 NONAME
?qt_metacast@BanBrowserDialog@@UAEPAXPBD@Z @1743 NONAME
?qt_metacast@BanCategoryList@@UAEPAXPBD@Z @1744 NONAME
?qt_metacast@BanElementHelper@@UAEPAXPBD@Z @1745 NONAME
?qt_metacast@BanElementScriptValue@@UAEPAXPBD@Z @1746 NONAME
?qt_metacast@BanList@@UAEPAXPBD@Z @1747 NONAME
?qt_metacast@BanScriptDepsDialog@@UAEPAXPBD@Z @1748 NONAME
?qt_metacast@BanScriptEditor@@UAEPAXPBD@Z @1749 NONAME
?qt_metacast@BanScriptRuntime@@UAEPAXPBD@Z @1750 NONAME
?qt_metacast@BanScriptWidget@@UAEPAXPBD@Z @1751 NONAME
?qt_metacast@BanTitleWidget@@UAEPAXPBD@Z @1752 NONAME
?qt_metacast@CameraWindow@@UAEPAXPBD@Z @1753 NONAME
?qt_metacast@CheckableImageButton@@UAEPAXPBD@Z @1754 NONAME
?qt_metacast@ColorButton@@UAEPAXPBD@Z @1755 NONAME
?qt_metacast@DrawingToolsTitleWidget@@UAEPAXPBD@Z @1756 NONAME
?qt_metacast@ElementLabel@@UAEPAXPBD@Z @1757 NONAME
?qt_metacast@ElementLabelBorder@@UAEPAXPBD@Z @1758 NONAME
?qt_metacast@ElementResizableTitlebar@@UAEPAXPBD@Z @1759 NONAME
?qt_metacast@FileTitleWidget@@UAEPAXPBD@Z @1760 NONAME
?qt_metacast@FourStateImageButton@@UAEPAXPBD@Z @1761 NONAME
?qt_metacast@HeraDocManager@@UAEPAXPBD@Z @1762 NONAME
?qt_metacast@HeraMainWidget@@UAEPAXPBD@Z @1763 NONAME
?qt_metacast@HtmlElementEditor@@UAEPAXPBD@Z @1764 NONAME
?qt_metacast@HtmlElementViewer@@UAEPAXPBD@Z @1765 NONAME
?qt_metacast@HtmlTextElementHelper@@UAEPAXPBD@Z @1766 NONAME
?qt_metacast@ImageElementHelper@@UAEPAXPBD@Z @1767 NONAME
?qt_metacast@JSEdit@@UAEPAXPBD@Z @1768 NONAME
?qt_metacast@KePages@@UAEPAXPBD@Z @1769 NONAME
?qt_metacast@KeTime@@UAEPAXPBD@Z @1770 NONAME
?qt_metacast@KeTitleWidget@@UAEPAXPBD@Z @1771 NONAME
?qt_metacast@KeWidget@@UAEPAXPBD@Z @1772 NONAME
?qt_metacast@LiveTitleWidget@@UAEPAXPBD@Z @1773 NONAME
?qt_metacast@LiveWidget@@UAEPAXPBD@Z @1774 NONAME
?qt_metacast@LokiClient@@UAEPAXPBD@Z @1775 NONAME
?qt_metacast@NotifyWindow@@UAEPAXPBD@Z @1776 NONAME
?qt_metacast@NumberButton@@UAEPAXPBD@Z @1777 NONAME
?qt_metacast@OneImageButton@@UAEPAXPBD@Z @1778 NONAME
?qt_metacast@PlayerPage@@UAEPAXPBD@Z @1779 NONAME
?qt_metacast@PlayerProgressBar@@UAEPAXPBD@Z @1780 NONAME
?qt_metacast@PlayerTitleWidget@@UAEPAXPBD@Z @1781 NONAME
?qt_metacast@PlayerWidget@@UAEPAXPBD@Z @1782 NONAME
?qt_metacast@ScCheckableButton@@UAEPAXPBD@Z @1783 NONAME
?qt_metacast@ScreenshotWindow@@UAEPAXPBD@Z @1784 NONAME
?qt_metacast@ScriptTitleWidget@@UAEPAXPBD@Z @1785 NONAME
?qt_metacast@SelectColorMenu@@UAEPAXPBD@Z @1786 NONAME
?qt_metacast@SelectNumberMenu@@UAEPAXPBD@Z @1787 NONAME
?qt_metacast@SlidePresenter@@UAEPAXPBD@Z @1788 NONAME
?qt_metacast@SysTitleWidget@@UAEPAXPBD@Z @1789 NONAME
?qt_metacast@TestBaseWidget@@UAEPAXPBD@Z @1790 NONAME
?qt_metacast@TestTitleWidget@@UAEPAXPBD@Z @1791 NONAME
?qt_metacast@TextElementHelper@@UAEPAXPBD@Z @1792 NONAME
?qt_metacast@TitleButton@@UAEPAXPBD@Z @1793 NONAME
?qt_metacast@TitleCheckBox@@UAEPAXPBD@Z @1794 NONAME
?qt_metacast@TitleComboBox@@UAEPAXPBD@Z @1795 NONAME
?qt_metacast@TitleWidget@@UAEPAXPBD@Z @1796 NONAME
?qt_metacast@TwoStateImageButton@@UAEPAXPBD@Z @1797 NONAME
?qt_static_metacall@AddCorrectDialog@@CAXPAVQObject@@W4Call@QMetaObject@@HPAPAX@Z @1798 NONAME
?qt_static_metacall@AnimationThread@@CAXPAVQObject@@W4Call@QMetaObject@@HPAPAX@Z @1799 NONAME
?qt_static_metacall@AudioVolumeIndicator@@CAXPAVQObject@@W4Call@QMetaObject@@HPAPAX@Z @1800 NONAME
?qt_static_metacall@BanBaseWidget@@CAXPAVQObject@@W4Call@QMetaObject@@HPAPAX@Z @1801 NONAME
?qt_static_metacall@BanBrowserDialog@@CAXPAVQObject@@W4Call@QMetaObject@@HPAPAX@Z @1802 NONAME
?qt_static_metacall@BanCategoryList@@CAXPAVQObject@@W4Call@QMetaObject@@HPAPAX@Z @1803 NONAME
?qt_static_metacall@BanElementHelper@@CAXPAVQObject@@W4Call@QMetaObject@@HPAPAX@Z @1804 NONAME
?qt_static_metacall@BanElementScriptValue@@CAXPAVQObject@@W4Call@QMetaObject@@HPAPAX@Z @1805 NONAME
?qt_static_metacall@BanList@@CAXPAVQObject@@W4Call@QMetaObject@@HPAPAX@Z @1806 NONAME
?qt_static_metacall@BanScriptDepsDialog@@CAXPAVQObject@@W4Call@QMetaObject@@HPAPAX@Z @1807 NONAME
?qt_static_metacall@BanScriptEditor@@CAXPAVQObject@@W4Call@QMetaObject@@HPAPAX@Z @1808 NONAME
?qt_static_metacall@BanScriptRuntime@@CAXPAVQObject@@W4Call@QMetaObject@@HPAPAX@Z @1809 NONAME
?qt_static_metacall@BanScriptWidget@@CAXPAVQObject@@W4Call@QMetaObject@@HPAPAX@Z @1810 NONAME
?qt_static_metacall@BanTitleWidget@@CAXPAVQObject@@W4Call@QMetaObject@@HPAPAX@Z @1811 NONAME
?qt_static_metacall@CameraWindow@@CAXPAVQObject@@W4Call@QMetaObject@@HPAPAX@Z @1812 NONAME
?qt_static_metacall@CheckableImageButton@@CAXPAVQObject@@W4Call@QMetaObject@@HPAPAX@Z @1813 NONAME
?qt_static_metacall@ColorButton@@CAXPAVQObject@@W4Call@QMetaObject@@HPAPAX@Z @1814 NONAME
?qt_static_metacall@DrawingToolsTitleWidget@@CAXPAVQObject@@W4Call@QMetaObject@@HPAPAX@Z @1815 NONAME
?qt_static_metacall@ElementLabel@@CAXPAVQObject@@W4Call@QMetaObject@@HPAPAX@Z @1816 NONAME
?qt_static_metacall@ElementLabelBorder@@CAXPAVQObject@@W4Call@QMetaObject@@HPAPAX@Z @1817 NONAME
?qt_static_metacall@ElementResizableTitlebar@@CAXPAVQObject@@W4Call@QMetaObject@@HPAPAX@Z @1818 NONAME
?qt_static_metacall@FileTitleWidget@@CAXPAVQObject@@W4Call@QMetaObject@@HPAPAX@Z @1819 NONAME
?qt_static_metacall@FourStateImageButton@@CAXPAVQObject@@W4Call@QMetaObject@@HPAPAX@Z @1820 NONAME
?qt_static_metacall@HeraDocManager@@CAXPAVQObject@@W4Call@QMetaObject@@HPAPAX@Z @1821 NONAME
?qt_static_metacall@HeraMainWidget@@CAXPAVQObject@@W4Call@QMetaObject@@HPAPAX@Z @1822 NONAME
?qt_static_metacall@HtmlElementEditor@@CAXPAVQObject@@W4Call@QMetaObject@@HPAPAX@Z @1823 NONAME
?qt_static_metacall@HtmlElementViewer@@CAXPAVQObject@@W4Call@QMetaObject@@HPAPAX@Z @1824 NONAME
?qt_static_metacall@HtmlTextElementHelper@@CAXPAVQObject@@W4Call@QMetaObject@@HPAPAX@Z @1825 NONAME
?qt_static_metacall@ImageElementHelper@@CAXPAVQObject@@W4Call@QMetaObject@@HPAPAX@Z @1826 NONAME
?qt_static_metacall@JSEdit@@CAXPAVQObject@@W4Call@QMetaObject@@HPAPAX@Z @1827 NONAME
?qt_static_metacall@KePages@@CAXPAVQObject@@W4Call@QMetaObject@@HPAPAX@Z @1828 NONAME
?qt_static_metacall@KeTime@@CAXPAVQObject@@W4Call@QMetaObject@@HPAPAX@Z @1829 NONAME
?qt_static_metacall@KeTitleWidget@@CAXPAVQObject@@W4Call@QMetaObject@@HPAPAX@Z @1830 NONAME
?qt_static_metacall@KeWidget@@CAXPAVQObject@@W4Call@QMetaObject@@HPAPAX@Z @1831 NONAME
?qt_static_metacall@LiveTitleWidget@@CAXPAVQObject@@W4Call@QMetaObject@@HPAPAX@Z @1832 NONAME
?qt_static_metacall@LiveWidget@@CAXPAVQObject@@W4Call@QMetaObject@@HPAPAX@Z @1833 NONAME
?qt_static_metacall@LokiClient@@CAXPAVQObject@@W4Call@QMetaObject@@HPAPAX@Z @1834 NONAME
?qt_static_metacall@NotifyWindow@@CAXPAVQObject@@W4Call@QMetaObject@@HPAPAX@Z @1835 NONAME
?qt_static_metacall@NumberButton@@CAXPAVQObject@@W4Call@QMetaObject@@HPAPAX@Z @1836 NONAME
?qt_static_metacall@OneImageButton@@CAXPAVQObject@@W4Call@QMetaObject@@HPAPAX@Z @1837 NONAME
?qt_static_metacall@PlayerPage@@CAXPAVQObject@@W4Call@QMetaObject@@HPAPAX@Z @1838 NONAME
?qt_static_metacall@PlayerProgressBar@@CAXPAVQObject@@W4Call@QMetaObject@@HPAPAX@Z @1839 NONAME
?qt_static_metacall@PlayerTitleWidget@@CAXPAVQObject@@W4Call@QMetaObject@@HPAPAX@Z @1840 NONAME
?qt_static_metacall@PlayerWidget@@CAXPAVQObject@@W4Call@QMetaObject@@HPAPAX@Z @1841 NONAME
?qt_static_metacall@ScCheckableButton@@CAXPAVQObject@@W4Call@QMetaObject@@HPAPAX@Z @1842 NONAME
?qt_static_metacall@ScreenshotWindow@@CAXPAVQObject@@W4Call@QMetaObject@@HPAPAX@Z @1843 NONAME
?qt_static_metacall@ScriptTitleWidget@@CAXPAVQObject@@W4Call@QMetaObject@@HPAPAX@Z @1844 NONAME
?qt_static_metacall@SelectColorMenu@@CAXPAVQObject@@W4Call@QMetaObject@@HPAPAX@Z @1845 NONAME
?qt_static_metacall@SelectNumberMenu@@CAXPAVQObject@@W4Call@QMetaObject@@HPAPAX@Z @1846 NONAME
?qt_static_metacall@SlidePresenter@@CAXPAVQObject@@W4Call@QMetaObject@@HPAPAX@Z @1847 NONAME
?qt_static_metacall@SysTitleWidget@@CAXPAVQObject@@W4Call@QMetaObject@@HPAPAX@Z @1848 NONAME
?qt_static_metacall@TestBaseWidget@@CAXPAVQObject@@W4Call@QMetaObject@@HPAPAX@Z @1849 NONAME
?qt_static_metacall@TestTitleWidget@@CAXPAVQObject@@W4Call@QMetaObject@@HPAPAX@Z @1850 NONAME
?qt_static_metacall@TextElementHelper@@CAXPAVQObject@@W4Call@QMetaObject@@HPAPAX@Z @1851 NONAME
?qt_static_metacall@TitleButton@@CAXPAVQObject@@W4Call@QMetaObject@@HPAPAX@Z @1852 NONAME
?qt_static_metacall@TitleCheckBox@@CAXPAVQObject@@W4Call@QMetaObject@@HPAPAX@Z @1853 NONAME
?qt_static_metacall@TitleComboBox@@CAXPAVQObject@@W4Call@QMetaObject@@HPAPAX@Z @1854 NONAME
?qt_static_metacall@TitleWidget@@CAXPAVQObject@@W4Call@QMetaObject@@HPAPAX@Z @1855 NONAME
?qt_static_metacall@TwoStateImageButton@@CAXPAVQObject@@W4Call@QMetaObject@@HPAPAX@Z @1856 NONAME
?reset@BanScriptWidget@@AAEXXZ @1857 NONAME
?resizeEvent@BanBaseWidget@@MAEXPAVQResizeEvent@@@Z @1858 NONAME
?resizeEvent@ElementLabelBorder@@UAEXPAVQResizeEvent@@@Z @1859 NONAME
?resizeEvent@HeraMainWidget@@EAEXPAVQResizeEvent@@@Z @1860 NONAME
?resizeEvent@JSEdit@@MAEXPAVQResizeEvent@@@Z @1861 NONAME
?resizeEvent@LiveWidget@@EAEXPAVQResizeEvent@@@Z @1862 NONAME
?resizeEvent@PlayerPage@@MAEXPAVQResizeEvent@@@Z @1863 NONAME
?resizeEvent@TextElementHelper@@UAEXPAVQResizeEvent@@@Z @1864 NONAME
?rotate@BanScriptRuntime@@QAE?AVQScriptValue@@N@Z @1865 NONAME
?rotate@BanScriptWidget@@AAENN@Z @1866 NONAME
?rotateFunction@BanScriptRuntime@@CA?AVQScriptValue@@PAVQScriptContext@@PAVQScriptEngine@@PAX@Z @1867 NONAME
?run@AnimationThread@@UAEXXZ @1868 NONAME
?scale@BanScriptRuntime@@QAE?AVQScriptValue@@NN@Z @1869 NONAME
?scale@BanScriptWidget@@AAE?AVQPointF@@NN@Z @1870 NONAME
?scaleFunction@BanScriptRuntime@@CA?AVQScriptValue@@PAVQScriptContext@@PAVQScriptEngine@@PAX@Z @1871 NONAME
?setColor@JSEdit@@QAEXW4ColorComponent@1@ABVQColor@@@Z @1872 NONAME
?setLineNumbersVisible@JSEdit@@QAEX_N@Z @1873 NONAME
?setMousePress@CheckableImageButton@@QAEX_N@Z @1874 NONAME
?setOrigin@BanScriptRuntime@@QAE?AVQScriptValue@@HH@Z @1875 NONAME
?setOrigin@BanScriptWidget@@AAE?AVQPointF@@HH@Z @1876 NONAME
?setOriginFunction@BanScriptRuntime@@CA?AVQScriptValue@@PAVQScriptContext@@PAVQScriptEngine@@PAX@Z @1877 NONAME
?setTextWrapEnabled@JSEdit@@QAEX_N@Z @1878 NONAME
?showEvent@BanElementHelper@@EAEXPAVQShowEvent@@@Z @1879 NONAME
?showEvent@ElementLabelBorder@@UAEXPAVQShowEvent@@@Z @1880 NONAME
?showEvent@HtmlTextElementHelper@@UAEXPAVQShowEvent@@@Z @1881 NONAME
?showEvent@ImageElementHelper@@EAEXPAVQShowEvent@@@Z @1882 NONAME
?showEvent@TextElementHelper@@UAEXPAVQShowEvent@@@Z @1883 NONAME
?showMainMenu@TitleWidget@@QAEXXZ @1884 NONAME
?showSkin@TitleWidget@@QAEXXZ @1885 NONAME
?signal_connect@?$has_slots@Vsingle_threaded@sigslot_liangshi@@@sigslot_liangshi@@QAEXPAV?$_signal_base@Vsingle_threaded@sigslot_liangshi@@@2@@Z @1886 NONAME
?signal_disconnect@?$has_slots@Vsingle_threaded@sigslot_liangshi@@@sigslot_liangshi@@QAEXPAV?$_signal_base@Vsingle_threaded@sigslot_liangshi@@@2@@Z @1887 NONAME
?sizeHint@HtmlElementViewer@@UBE?AVQSize@@XZ @1888 NONAME
?staticMetaObject@AddCorrectDialog@@2UQMetaObject@@B @1889 NONAME
?staticMetaObject@AnimationThread@@2UQMetaObject@@B @1890 NONAME
?staticMetaObject@AudioVolumeIndicator@@2UQMetaObject@@B @1891 NONAME
?staticMetaObject@BanBaseWidget@@2UQMetaObject@@B @1892 NONAME
?staticMetaObject@BanBrowserDialog@@2UQMetaObject@@B @1893 NONAME
?staticMetaObject@BanCategoryList@@2UQMetaObject@@B @1894 NONAME
?staticMetaObject@BanElementHelper@@2UQMetaObject@@B @1895 NONAME
?staticMetaObject@BanElementScriptValue@@2UQMetaObject@@B @1896 NONAME
?staticMetaObject@BanList@@2UQMetaObject@@B @1897 NONAME
?staticMetaObject@BanScriptDepsDialog@@2UQMetaObject@@B @1898 NONAME
?staticMetaObject@BanScriptEditor@@2UQMetaObject@@B @1899 NONAME
?staticMetaObject@BanScriptRuntime@@2UQMetaObject@@B @1900 NONAME
?staticMetaObject@BanScriptWidget@@2UQMetaObject@@B @1901 NONAME
?staticMetaObject@BanTitleWidget@@2UQMetaObject@@B @1902 NONAME
?staticMetaObject@CameraWindow@@2UQMetaObject@@B @1903 NONAME
?staticMetaObject@CheckableImageButton@@2UQMetaObject@@B @1904 NONAME
?staticMetaObject@ColorButton@@2UQMetaObject@@B @1905 NONAME
?staticMetaObject@DrawingToolsTitleWidget@@2UQMetaObject@@B @1906 NONAME
?staticMetaObject@ElementLabel@@2UQMetaObject@@B @1907 NONAME
?staticMetaObject@ElementLabelBorder@@2UQMetaObject@@B @1908 NONAME
?staticMetaObject@ElementResizableTitlebar@@2UQMetaObject@@B @1909 NONAME
?staticMetaObject@FileTitleWidget@@2UQMetaObject@@B @1910 NONAME
?staticMetaObject@FourStateImageButton@@2UQMetaObject@@B @1911 NONAME
?staticMetaObject@HeraDocManager@@2UQMetaObject@@B @1912 NONAME
?staticMetaObject@HeraMainWidget@@2UQMetaObject@@B @1913 NONAME
?staticMetaObject@HtmlElementEditor@@2UQMetaObject@@B @1914 NONAME
?staticMetaObject@HtmlElementViewer@@2UQMetaObject@@B @1915 NONAME
?staticMetaObject@HtmlTextElementHelper@@2UQMetaObject@@B @1916 NONAME
?staticMetaObject@ImageElementHelper@@2UQMetaObject@@B @1917 NONAME
?staticMetaObject@JSEdit@@2UQMetaObject@@B @1918 NONAME
?staticMetaObject@KePages@@2UQMetaObject@@B @1919 NONAME
?staticMetaObject@KeTime@@2UQMetaObject@@B @1920 NONAME
?staticMetaObject@KeTitleWidget@@2UQMetaObject@@B @1921 NONAME
?staticMetaObject@KeWidget@@2UQMetaObject@@B @1922 NONAME
?staticMetaObject@LiveTitleWidget@@2UQMetaObject@@B @1923 NONAME
?staticMetaObject@LiveWidget@@2UQMetaObject@@B @1924 NONAME
?staticMetaObject@LokiClient@@2UQMetaObject@@B @1925 NONAME
?staticMetaObject@NotifyWindow@@2UQMetaObject@@B @1926 NONAME
?staticMetaObject@NumberButton@@2UQMetaObject@@B @1927 NONAME
?staticMetaObject@OneImageButton@@2UQMetaObject@@B @1928 NONAME
?staticMetaObject@PlayerPage@@2UQMetaObject@@B @1929 NONAME
?staticMetaObject@PlayerProgressBar@@2UQMetaObject@@B @1930 NONAME
?staticMetaObject@PlayerTitleWidget@@2UQMetaObject@@B @1931 NONAME
?staticMetaObject@PlayerWidget@@2UQMetaObject@@B @1932 NONAME
?staticMetaObject@ScCheckableButton@@2UQMetaObject@@B @1933 NONAME
?staticMetaObject@ScreenshotWindow@@2UQMetaObject@@B @1934 NONAME
?staticMetaObject@ScriptTitleWidget@@2UQMetaObject@@B @1935 NONAME
?staticMetaObject@SelectColorMenu@@2UQMetaObject@@B @1936 NONAME
?staticMetaObject@SelectNumberMenu@@2UQMetaObject@@B @1937 NONAME
?staticMetaObject@SlidePresenter@@2UQMetaObject@@B @1938 NONAME
?staticMetaObject@SysTitleWidget@@2UQMetaObject@@B @1939 NONAME
?staticMetaObject@TestBaseWidget@@2UQMetaObject@@B @1940 NONAME
?staticMetaObject@TestTitleWidget@@2UQMetaObject@@B @1941 NONAME
?staticMetaObject@TextElementHelper@@2UQMetaObject@@B @1942 NONAME
?staticMetaObject@TitleButton@@2UQMetaObject@@B @1943 NONAME
?staticMetaObject@TitleCheckBox@@2UQMetaObject@@B @1944 NONAME
?staticMetaObject@TitleComboBox@@2UQMetaObject@@B @1945 NONAME
?staticMetaObject@TitleWidget@@2UQMetaObject@@B @1946 NONAME
?staticMetaObject@TwoStateImageButton@@2UQMetaObject@@B @1947 NONAME
?tr@AddCorrectDialog@@SA?AVQString@@PBD0H@Z @1948 NONAME
?tr@AnimationThread@@SA?AVQString@@PBD0H@Z @1949 NONAME
?tr@AudioVolumeIndicator@@SA?AVQString@@PBD0H@Z @1950 NONAME
?tr@BanBaseWidget@@SA?AVQString@@PBD0H@Z @1951 NONAME
?tr@BanBrowserDialog@@SA?AVQString@@PBD0H@Z @1952 NONAME
?tr@BanCategoryList@@SA?AVQString@@PBD0H@Z @1953 NONAME
?tr@BanElementHelper@@SA?AVQString@@PBD0H@Z @1954 NONAME
?tr@BanElementScriptValue@@SA?AVQString@@PBD0H@Z @1955 NONAME
?tr@BanList@@SA?AVQString@@PBD0H@Z @1956 NONAME
?tr@BanScriptDepsDialog@@SA?AVQString@@PBD0H@Z @1957 NONAME
?tr@BanScriptEditor@@SA?AVQString@@PBD0H@Z @1958 NONAME
?tr@BanScriptRuntime@@SA?AVQString@@PBD0H@Z @1959 NONAME
?tr@BanScriptWidget@@SA?AVQString@@PBD0H@Z @1960 NONAME
?tr@BanTitleWidget@@SA?AVQString@@PBD0H@Z @1961 NONAME
?tr@CameraWindow@@SA?AVQString@@PBD0H@Z @1962 NONAME
?tr@CheckableImageButton@@SA?AVQString@@PBD0H@Z @1963 NONAME
?tr@ColorButton@@SA?AVQString@@PBD0H@Z @1964 NONAME
?tr@DrawingToolsTitleWidget@@SA?AVQString@@PBD0H@Z @1965 NONAME
?tr@ElementLabel@@SA?AVQString@@PBD0H@Z @1966 NONAME
?tr@ElementLabelBorder@@SA?AVQString@@PBD0H@Z @1967 NONAME
?tr@ElementResizableTitlebar@@SA?AVQString@@PBD0H@Z @1968 NONAME
?tr@FileTitleWidget@@SA?AVQString@@PBD0H@Z @1969 NONAME
?tr@FourStateImageButton@@SA?AVQString@@PBD0H@Z @1970 NONAME
?tr@HeraDocManager@@SA?AVQString@@PBD0H@Z @1971 NONAME
?tr@HeraMainWidget@@SA?AVQString@@PBD0H@Z @1972 NONAME
?tr@HtmlElementEditor@@SA?AVQString@@PBD0H@Z @1973 NONAME
?tr@HtmlElementViewer@@SA?AVQString@@PBD0H@Z @1974 NONAME
?tr@HtmlTextElementHelper@@SA?AVQString@@PBD0H@Z @1975 NONAME
?tr@ImageElementHelper@@SA?AVQString@@PBD0H@Z @1976 NONAME
?tr@JSEdit@@SA?AVQString@@PBD0H@Z @1977 NONAME
?tr@KePages@@SA?AVQString@@PBD0H@Z @1978 NONAME
?tr@KeTime@@SA?AVQString@@PBD0H@Z @1979 NONAME
?tr@KeTitleWidget@@SA?AVQString@@PBD0H@Z @1980 NONAME
?tr@KeWidget@@SA?AVQString@@PBD0H@Z @1981 NONAME
?tr@LiveTitleWidget@@SA?AVQString@@PBD0H@Z @1982 NONAME
?tr@LiveWidget@@SA?AVQString@@PBD0H@Z @1983 NONAME
?tr@LokiClient@@SA?AVQString@@PBD0H@Z @1984 NONAME
?tr@NotifyWindow@@SA?AVQString@@PBD0H@Z @1985 NONAME
?tr@NumberButton@@SA?AVQString@@PBD0H@Z @1986 NONAME
?tr@OneImageButton@@SA?AVQString@@PBD0H@Z @1987 NONAME
?tr@PlayerPage@@SA?AVQString@@PBD0H@Z @1988 NONAME
?tr@PlayerProgressBar@@SA?AVQString@@PBD0H@Z @1989 NONAME
?tr@PlayerTitleWidget@@SA?AVQString@@PBD0H@Z @1990 NONAME
?tr@PlayerWidget@@SA?AVQString@@PBD0H@Z @1991 NONAME
?tr@ScCheckableButton@@SA?AVQString@@PBD0H@Z @1992 NONAME
?tr@ScreenshotWindow@@SA?AVQString@@PBD0H@Z @1993 NONAME
?tr@ScriptTitleWidget@@SA?AVQString@@PBD0H@Z @1994 NONAME
?tr@SelectColorMenu@@SA?AVQString@@PBD0H@Z @1995 NONAME
?tr@SelectNumberMenu@@SA?AVQString@@PBD0H@Z @1996 NONAME
?tr@SlidePresenter@@SA?AVQString@@PBD0H@Z @1997 NONAME
?tr@SysTitleWidget@@SA?AVQString@@PBD0H@Z @1998 NONAME
?tr@TestBaseWidget@@SA?AVQString@@PBD0H@Z @1999 NONAME
?tr@TestTitleWidget@@SA?AVQString@@PBD0H@Z @2000 NONAME
?tr@TextElementHelper@@SA?AVQString@@PBD0H@Z @2001 NONAME
?tr@TitleButton@@SA?AVQString@@PBD0H@Z @2002 NONAME
?tr@TitleCheckBox@@SA?AVQString@@PBD0H@Z @2003 NONAME
?tr@TitleComboBox@@SA?AVQString@@PBD0H@Z @2004 NONAME
?tr@TitleWidget@@SA?AVQString@@PBD0H@Z @2005 NONAME
?tr@TwoStateImageButton@@SA?AVQString@@PBD0H@Z @2006 NONAME
?trUtf8@AddCorrectDialog@@SA?AVQString@@PBD0H@Z @2007 NONAME
?trUtf8@AnimationThread@@SA?AVQString@@PBD0H@Z @2008 NONAME
?trUtf8@AudioVolumeIndicator@@SA?AVQString@@PBD0H@Z @2009 NONAME
?trUtf8@BanBaseWidget@@SA?AVQString@@PBD0H@Z @2010 NONAME
?trUtf8@BanBrowserDialog@@SA?AVQString@@PBD0H@Z @2011 NONAME
?trUtf8@BanCategoryList@@SA?AVQString@@PBD0H@Z @2012 NONAME
?trUtf8@BanElementHelper@@SA?AVQString@@PBD0H@Z @2013 NONAME
?trUtf8@BanElementScriptValue@@SA?AVQString@@PBD0H@Z @2014 NONAME
?trUtf8@BanList@@SA?AVQString@@PBD0H@Z @2015 NONAME
?trUtf8@BanScriptDepsDialog@@SA?AVQString@@PBD0H@Z @2016 NONAME
?trUtf8@BanScriptEditor@@SA?AVQString@@PBD0H@Z @2017 NONAME
?trUtf8@BanScriptRuntime@@SA?AVQString@@PBD0H@Z @2018 NONAME
?trUtf8@BanScriptWidget@@SA?AVQString@@PBD0H@Z @2019 NONAME
?trUtf8@BanTitleWidget@@SA?AVQString@@PBD0H@Z @2020 NONAME
?trUtf8@CameraWindow@@SA?AVQString@@PBD0H@Z @2021 NONAME
?trUtf8@CheckableImageButton@@SA?AVQString@@PBD0H@Z @2022 NONAME
?trUtf8@ColorButton@@SA?AVQString@@PBD0H@Z @2023 NONAME
?trUtf8@DrawingToolsTitleWidget@@SA?AVQString@@PBD0H@Z @2024 NONAME
?trUtf8@ElementLabel@@SA?AVQString@@PBD0H@Z @2025 NONAME
?trUtf8@ElementLabelBorder@@SA?AVQString@@PBD0H@Z @2026 NONAME
?trUtf8@ElementResizableTitlebar@@SA?AVQString@@PBD0H@Z @2027 NONAME
?trUtf8@FileTitleWidget@@SA?AVQString@@PBD0H@Z @2028 NONAME
?trUtf8@FourStateImageButton@@SA?AVQString@@PBD0H@Z @2029 NONAME
?trUtf8@HeraDocManager@@SA?AVQString@@PBD0H@Z @2030 NONAME
?trUtf8@HeraMainWidget@@SA?AVQString@@PBD0H@Z @2031 NONAME
?trUtf8@HtmlElementEditor@@SA?AVQString@@PBD0H@Z @2032 NONAME
?trUtf8@HtmlElementViewer@@SA?AVQString@@PBD0H@Z @2033 NONAME
?trUtf8@HtmlTextElementHelper@@SA?AVQString@@PBD0H@Z @2034 NONAME
?trUtf8@ImageElementHelper@@SA?AVQString@@PBD0H@Z @2035 NONAME
?trUtf8@JSEdit@@SA?AVQString@@PBD0H@Z @2036 NONAME
?trUtf8@KePages@@SA?AVQString@@PBD0H@Z @2037 NONAME
?trUtf8@KeTime@@SA?AVQString@@PBD0H@Z @2038 NONAME
?trUtf8@KeTitleWidget@@SA?AVQString@@PBD0H@Z @2039 NONAME
?trUtf8@KeWidget@@SA?AVQString@@PBD0H@Z @2040 NONAME
?trUtf8@LiveTitleWidget@@SA?AVQString@@PBD0H@Z @2041 NONAME
?trUtf8@LiveWidget@@SA?AVQString@@PBD0H@Z @2042 NONAME
?trUtf8@LokiClient@@SA?AVQString@@PBD0H@Z @2043 NONAME
?trUtf8@NotifyWindow@@SA?AVQString@@PBD0H@Z @2044 NONAME
?trUtf8@NumberButton@@SA?AVQString@@PBD0H@Z @2045 NONAME
?trUtf8@OneImageButton@@SA?AVQString@@PBD0H@Z @2046 NONAME
?trUtf8@PlayerPage@@SA?AVQString@@PBD0H@Z @2047 NONAME
?trUtf8@PlayerProgressBar@@SA?AVQString@@PBD0H@Z @2048 NONAME
?trUtf8@PlayerTitleWidget@@SA?AVQString@@PBD0H@Z @2049 NONAME
?trUtf8@PlayerWidget@@SA?AVQString@@PBD0H@Z @2050 NONAME
?trUtf8@ScCheckableButton@@SA?AVQString@@PBD0H@Z @2051 NONAME
?trUtf8@ScreenshotWindow@@SA?AVQString@@PBD0H@Z @2052 NONAME
?trUtf8@ScriptTitleWidget@@SA?AVQString@@PBD0H@Z @2053 NONAME
?trUtf8@SelectColorMenu@@SA?AVQString@@PBD0H@Z @2054 NONAME
?trUtf8@SelectNumberMenu@@SA?AVQString@@PBD0H@Z @2055 NONAME
?trUtf8@SlidePresenter@@SA?AVQString@@PBD0H@Z @2056 NONAME
?trUtf8@SysTitleWidget@@SA?AVQString@@PBD0H@Z @2057 NONAME
?trUtf8@TestBaseWidget@@SA?AVQString@@PBD0H@Z @2058 NONAME
?trUtf8@TestTitleWidget@@SA?AVQString@@PBD0H@Z @2059 NONAME
?trUtf8@TextElementHelper@@SA?AVQString@@PBD0H@Z @2060 NONAME
?trUtf8@TitleButton@@SA?AVQString@@PBD0H@Z @2061 NONAME
?trUtf8@TitleCheckBox@@SA?AVQString@@PBD0H@Z @2062 NONAME
?trUtf8@TitleComboBox@@SA?AVQString@@PBD0H@Z @2063 NONAME
?trUtf8@TitleWidget@@SA?AVQString@@PBD0H@Z @2064 NONAME
?trUtf8@TwoStateImageButton@@SA?AVQString@@PBD0H@Z @2065 NONAME
?updateCursor@JSEdit@@AAEXXZ @2066 NONAME
?updateSidebar@JSEdit@@AAEXABVQRect@@H@Z @2067 NONAME
?updateSidebar@JSEdit@@QAEXXZ @2068 NONAME
?wheelEvent@ElementLabel@@EAEXPAVQWheelEvent@@@Z @2069 NONAME
?wheelEvent@ElementLabelBorder@@UAEXPAVQWheelEvent@@@Z @2070 NONAME
?wheelEvent@HtmlTextElementHelper@@UAEXPAVQWheelEvent@@@Z @2071 NONAME
?wheelEvent@JSEdit@@MAEXPAVQWheelEvent@@@Z @2072 NONAME
?wheelEvent@TextElementHelper@@UAEXPAVQWheelEvent@@@Z @2073 NONAME
